(dp0
S'vid642'
p1
S'ItFqogTmAvQ_281_286'
p2
sS'vid1492'
p3
S'kWLNZzuo3do_262_270'
p4
sS'vid1493'
p5
S'kWLNZzuo3do_31_37'
p6
sS'vid1544'
p7
S'lv8d_qLLqsk_1_20'
p8
sS'vid1545'
p9
S'lvFYUmDSOvU_34_38'
p10
sS'vid1546'
p11
S'lw7pTwpx0K0_38_48'
p12
sS'vid1547'
p13
S'm1NR0uNNs5Y_104_110'
p14
sS'vid1540'
p15
S'lo4KcsBN--A_0_10'
p16
sS'vid1541'
p17
S'lrZxpneS6Gk_0_12'
p18
sS'vid647'
p19
S'Ixw6wmoC_xg_60_70'
p20
sS'vid1542'
p21
S'lsanQj2yacs_102_108'
p22
sS'vid1543'
p23
S'lsanQj2yacs_80_85'
p24
sS'vid1940'
p25
S'zFIn8DeV5PM_20_33'
p26
sS'vid1941'
p27
S'zH4v_DClIoc_3_28'
p28
sS'vid1942'
p29
S'zHy7pM0U49w_103_109'
p30
sS'vid1943'
p31
S'zHy7pM0U49w_110_116'
p32
sS'vid1944'
p33
S'zMg9dChF97A_12_38'
p34
sS'vid1945'
p35
S'zS50h-a8RTg_3_9'
p36
sS'vid1946'
p37
S'zSPBC8EO6dY_122_126'
p38
sS'vid1947'
p39
S'zSPBC8EO6dY_132_140'
p40
sS'vid944'
p41
S'UI3Cbj9fbxQ_2_23'
p42
sS'vid945'
p43
S'UJKythlXAIY_17_21'
p44
sS'vid946'
p45
S'UXs3eq68ZjE_194_200'
p46
sS'vid947'
p47
S'UXs3eq68ZjE_209_214'
p48
sS'vid940'
p49
S'TvBsaMgqh5s_61_68'
p50
sS'vid941'
p51
S'TwQzFqBqgeA_0_10'
p52
sS'vid942'
p53
S'TxzxPyfsSxY_0_10'
p54
sS'vid943'
p55
S'UDwvax7K57c_28_35'
p56
sS'vid1513'
p57
S'kquB3rIgfGk_640_645'
p58
sS'vid1512'
p59
S'kquB3rIgfGk_537_544'
p60
sS'vid1511'
p61
S'kquB3rIgfGk_525_532'
p62
sS'vid1510'
p63
S'kquB3rIgfGk_197_202'
p64
sS'vid1517'
p65
S'l57mQZvDaL4_10_30'
p66
sS'vid1516'
p67
S'kzyFBlNRohs_82_88'
p68
sS'vid1515'
p69
S'kuNQpRTc-hA_126_135'
p70
sS'vid1514'
p71
S'krAk8WPZRL4_207_212'
p72
sS'vid1519'
p73
S'lAznAeFFldg_6_10'
p74
sS'vid1518'
p75
S'l5JJ2n2ggiQ_319_327'
p76
sS'vid1229'
p77
S'cLNrpO6wBk4_37_47'
p78
sS'vid1228'
p79
S'cJOZp2ZftCw_1_12'
p80
sS'vid1739'
p81
S'rw9h_574HxE_251_254'
p82
sS'vid1738'
p83
S'rw9h_574HxE_229_236'
p84
sS'vid1221'
p85
S'c2a0GcoJAjw_52_73'
p86
sS'vid1220'
p87
S'c2a0GcoJAjw_107_129'
p88
sS'vid1223'
p89
S'c53HKs39i28_26_35'
p90
sS'vid1222'
p91
S'c51L6ZxZGjQ_137_154'
p92
sS'vid1225'
p93
S'c76tShLfQb0_74_81'
p94
sS'vid1224'
p95
S'c75SIlAjfjg_6_14'
p96
sS'vid1227'
p97
S'cFzSEIGrEfA_0_24'
p98
sS'vid1226'
p99
S'cCmnN96zIeQ_14_24'
p100
sS'vid1359'
p101
S'gjVBEJGHrXk_26_38'
p102
sS'vid1358'
p103
S'giLxPCgLLqg_9_19'
p104
sS'vid1429'
p105
S'j2Dhf-xFUxU_13_20'
p106
sS'vid1428'
p107
S'j1Z890_Q3so_131_138'
p108
sS'vid1355'
p109
S'ggWzbEFC-RE_1_11'
p110
sS'vid1354'
p111
S'ge7OOILJA6U_20_25'
p112
sS'vid1357'
p113
S'ghynaoVNwZc_1_20'
p114
sS'vid1356'
p115
S'ggic669elLM_200_215'
p116
sS'vid1351'
p117
S'gbUhorqLCzU_10_23'
p118
sS'vid1350'
p119
S'gXVaC3gBWbc_22_30'
p120
sS'vid1353'
p121
S'gbbRwBZuhzI_26_40'
p122
sS'vid1352'
p123
S'gbW9f8xydks_0_10'
p124
sS'vid1647'
p125
S'p69Q8lTkZTc_21_29'
p126
sS'vid1646'
p127
S'p3J3TAdKAYQ_0_10'
p128
sS'vid1645'
p129
S'otvx5OZHTJc_1_22'
p130
sS'vid1644'
p131
S'otLEUwHao_E_140_151'
p132
sS'vid1643'
p133
S'onxE6PpEXes_8_25'
p134
sS'vid1642'
p135
S'onW5hJXnI5s_126_133'
p136
sS'vid1641'
p137
S'onW5hJXnI5s_10_16'
p138
sS'vid1640'
p139
S'omIPdpxg--4_39_46'
p140
sS'vid1649'
p141
S'p6T3XrnYtFk_4_13'
p142
sS'vid1648'
p143
S'p69d3UBdpR8_98_109'
p144
sS'vid382'
p145
S'9Q0JfdP36kI_19_27'
p146
sS'vid383'
p147
S'9Q0JfdP36kI_23_28'
p148
sS'vid380'
p149
S'9OxQ-2gR1DU_18_38'
p150
sS'vid381'
p151
S'9Q0JfdP36kI_167_170'
p152
sS'vid386'
p153
S'9VG7Elw9TDA_85_91'
p154
sS'vid387'
p155
S'9W6aQNcU3PA_92_103'
p156
sS'vid384'
p157
S'9Q0JfdP36kI_56_64'
p158
sS'vid385'
p159
S'9QI8cgBSGo8_28_41'
p160
sS'vid1487'
p161
S'kWLNZzuo3do_222_227'
p162
sS'vid388'
p163
S'9WpJxn-2h1o_122_150'
p164
sS'vid389'
p165
S'9Wr48VFhZH8_45_50'
p166
sS'vid672'
p167
S'Je3V7U5Ctj4_634_639'
p168
sS'vid673'
p169
S'Je3V7U5Ctj4_760_765'
p170
sS'vid670'
p171
S'Je3V7U5Ctj4_569_576'
p172
sS'vid671'
p173
S'Je3V7U5Ctj4_582_587'
p174
sS'vid676'
p175
S'Je3V7U5Ctj4_997_1004'
p176
sS'vid677'
p177
S'Jfu-WkuCgD0_140_150'
p178
sS'vid674'
p179
S'Je3V7U5Ctj4_768_773'
p180
sS'vid675'
p181
S'Je3V7U5Ctj4_956_961'
p182
sS'vid678'
p183
S'JhCvLmf9yr0_46_50'
p184
sS'vid679'
p185
S'Jj4uYHr65H8_28_35'
p186
sS'vid1486'
p187
S'kWLNZzuo3do_217_222'
p188
sS'vid690'
p189
S'K-KVz3eqbnA_1_10'
p190
sS'vid818'
p191
S'P6eo3LULuuc_1_11'
p192
sS'vid819'
p193
S'PAN5IVvMlVc_17_23'
p194
sS'vid1116'
p195
S'ZlX_Gy4HP2E_38_55'
p196
sS'vid812'
p197
S'Oq3FV_zdyy0_843_855'
p198
sS'vid813'
p199
S'OvRmRN1-O0Q_21_25'
p200
sS'vid810'
p201
S'Okg8QYhdtvU_73_92'
p202
sS'vid811'
p203
S'OpR1Er5o6IY_209_217'
p204
sS'vid816'
p205
S'P2WM91LENgk_40_50'
p206
sS'vid692'
p207
S'K1ZM0LSLVw8_481_487'
p208
sS'vid814'
p209
S'Ow_o78zjo14_42_57'
p210
sS'vid815'
p211
S'OxL9z2BzBnk_0_19'
p212
sS'vid693'
p213
S'K1ZM0LSLVw8_488_494'
p214
sS'vid694'
p215
S'K2LxyytY3Dw_104_112'
p216
sS'vid695'
p217
S'K6xy6C-Hsa0_2_28'
p218
sS'vid696'
p219
S'KFt5Zz5Mwlo_12_30'
p220
sS'vid498'
p221
S'DGQL5lx-mwE_2_12'
p222
sS'vid499'
p223
S'DIToA1dDwGQ_32_42'
p224
sS'vid496'
p225
S'DBvSfds3FH4_84_88'
p226
sS'vid497'
p227
S'DDtX5a-OgLQ_1_15'
p228
sS'vid494'
p229
S'DB-3-TVjrxU_58_75'
p230
sS'vid495'
p231
S'DBvSfds3FH4_76_80'
p232
sS'vid492'
p233
S'D9I1Z6O_mbw_141_146'
p234
sS'vid493'
p235
S'DAmOfcvfKZ0_22_32'
p236
sS'vid490'
p237
S'D2FbgK_kkE8_121_151'
p238
sS'vid491'
p239
S'D9I1Z6O_mbw_112_119'
p240
sS'vid250'
p241
S'5XxshEdcfAM_96_107'
p242
sS'vid251'
p243
S'5YJaS2Eswg0_22_26'
p244
sS'vid252'
p245
S'5dZ8PXABC30_14_20'
p246
sS'vid253'
p247
S'5dv8MSWlxoQ_10_40'
p248
sS'vid254'
p249
S'5fDBl1wT2Lk_34_39'
p250
sS'vid255'
p251
S'5fq9iIxxA1s_12_27'
p252
sS'vid256'
p253
S'5l6acVf12S4_7_13'
p254
sS'vid709'
p255
S'KqKUXRHHkCc_101_105'
p256
sS'vid706'
p257
S'Kf8oZGHDTt4_4_13'
p258
sS'vid259'
p259
S'60x_yxy7Sfw_1_7'
p260
sS'vid704'
p261
S'KUc1cWKXjDc_20_30'
p262
sS'vid705'
p263
S'KeSQ5Rv7eH8_73_79'
p264
sS'vid702'
p265
S'KPPCwmU5OHQ_480_486'
p266
sS'vid703'
p267
S'KPPCwmU5OHQ_56_62'
p268
sS'vid700'
p269
S'KPPCwmU5OHQ_424_430'
p270
sS'vid701'
p271
S'KPPCwmU5OHQ_467_472'
p272
sS'vid926'
p273
S'TPhpsIK7pDc_25_32'
p274
sS'vid927'
p275
S'TXabUVUxJqI_22_31'
p276
sS'vid924'
p277
S'TIubRrkku-4_1_10'
p278
sS'vid925'
p279
S'TPD5wO_LEPU_2_6'
p280
sS'vid922'
p281
S'TF6LNmwDr_0_2_10'
p282
sS'vid923'
p283
S'TFJ6oR89Vb8_90_107'
p284
sS'vid920'
p285
S'SzEbtbNSg04_88_93'
p286
sS'vid921'
p287
S'T6lPRKRpu9w_32_39'
p288
sS'vid928'
p289
S'TZ860P4iTaM_10_24'
p290
sS'vid929'
p291
S'TZ860P4iTaM_11_20'
p292
sS'vid655'
p293
S'JIKaIriiK8w_0_15'
p294
sS'vid214'
p295
S'4lXdVS697DQ_10_25'
p296
sS'vid215'
p297
S'4s_0-zIWEog_1_15'
p298
sS'vid216'
p299
S'4t5POXt2e68_5_11'
p300
sS'vid217'
p301
S'4wT7zM8XgXQ_5_11'
p302
sS'vid210'
p303
S'4ge5_V-xhP0_138_142'
p304
sS'vid211'
p305
S'4ge5_V-xhP0_35_42'
p306
sS'vid212'
p307
S'4ikH9ZRcF2Q_89_105'
p308
sS'vid745'
p309
S'MPuKVz3sjBA_1_12'
p310
sS'vid1166'
p311
S'aGUx0QOKWXw_7_12'
p312
sS'vid1167'
p313
S'aHiUM8uWxxo_17_25'
p314
sS'vid1164'
p315
S'aCKNdip53W4_0_25'
p316
sS'vid198'
p317
S'4PcL6-mjRNk_11_18'
p318
sS'vid625'
p319
S'IhwPQL9dFYc_137_143'
p320
sS'vid624'
p321
S'IhwPQL9dFYc_130_136'
p322
sS'vid627'
p323
S'IhwPQL9dFYc_153_170'
p324
sS'vid1932'
p325
S'z0Si1XxMibg_0_30'
p326
sS'vid194'
p327
S'4Hhdr1IPOGs_90_98'
p328
sS'vid193'
p329
S'4Hhdr1IPOGs_1_10'
p330
sS'vid192'
p331
S'4D1o4FC8YbA_29_39'
p332
sS'vid191'
p333
S'4D1o4FC8YbA_207_216'
p334
sS'vid1714'
p335
S'qzQzooI4BqU_5_15'
p336
sS'vid190'
p337
S'47D9-U8hn5I_11_16'
p338
sS'vid1500'
p339
S'kWLNZzuo3do_86_93'
p340
sS'vid1501'
p341
S'kZfBt5me3Pg_2_7'
p342
sS'vid1502'
p343
S'kk3TIio1-Uw_5_14'
p344
sS'vid1503'
p345
S'klFyrnrUSck_13_19'
p346
sS'vid1504'
p347
S'klFyrnrUSck_25_36'
p348
sS'vid1505'
p349
S'klFyrnrUSck_42_46'
p350
sS'vid1506'
p351
S'klFyrnrUSck_63_73'
p352
sS'vid1507'
p353
S'klFyrnrUSck_79_85'
p354
sS'vid1508'
p355
S'klFyrnrUSck_87_100'
p356
sS'vid1509'
p357
S'klteYv1Uv9A_27_33'
p358
sS'vid1716'
p359
S'r0rmrbTb7fU_98_109'
p360
sS'vid1728'
p361
S'ri5AyXzxb4o_201_215'
p362
sS'vid1729'
p363
S'rl1rVk_xIOs_1_16'
p364
sS'vid1720'
p365
S'r4qv_BNlQNk_93_98'
p366
sS'vid1721'
p367
S'rKF0ZW34FRk_41_54'
p368
sS'vid1722'
p369
S'rNSAmHPYHjA_60_73'
p370
sS'vid1723'
p371
S'rOic25PnIx8_1_3'
p372
sS'vid1724'
p373
S'rQuNYxNmA6M_0_4'
p374
sS'vid1725'
p375
S'rV5VmhY3-Sw_65_76'
p376
sS'vid1726'
p377
S'rVFJzN20jhQ_27_32'
p378
sS'vid1727'
p379
S'rXZy-PHtnxg_8_42'
p380
sS'vid1711'
p381
S'qvg9eM4Hmzk_1_9'
p382
sS'vid241'
p383
S'5PpPOGU_0aA_65_75'
p384
sS'vid1710'
p385
S'qvSxiVV7jhw_0_15'
p386
sS'vid1348'
p387
S'gMqKUPeTAkg_17_30'
p388
sS'vid1349'
p389
S'gWRRHV7DLV0_21_31'
p390
sS'vid1438'
p391
S'jDFn-1lXJ98_71_80'
p392
sS'vid1439'
p393
S'jI58q6rcNLc_8_18'
p394
sS'vid1342'
p395
S'gGDtPJzh_0s_30_45'
p396
sS'vid1343'
p397
S'gHyXstpe_N8_116_125'
p398
sS'vid1340'
p399
S'g9aZcaEg7iY_0_9'
p400
sS'vid1341'
p401
S'gCra4qOrjFw_1_17'
p402
sS'vid1346'
p403
S'gHzws6FpuNE_10_12'
p404
sS'vid1347'
p405
S'gIvetX_oXeI_85_90'
p406
sS'vid1344'
p407
S'gHyXstpe_N8_140_150'
p408
sS'vid1345'
p409
S'gHyXstpe_N8_95_100'
p410
sS'vid1654'
p411
S'pFSoWsocv0g_8_17'
p412
sS'vid1655'
p413
S'pGCRurvXQGM_45_56'
p414
sS'vid1656'
p415
S'pGsU4FekJQM_10_18'
p416
sS'vid1657'
p417
S'pNelR-nHz7g_68_90'
p418
sS'vid1650'
p419
S'p6cg2jWI34M_34_42'
p420
sS'vid1651'
p421
S'p7IAuvd87hQ_12_19'
p422
sS'vid1652'
p423
S'p9g06ktIkJg_4_11'
p424
sS'vid1653'
p425
S'pDvzOLRLjPc_0_8'
p426
sS'vid1658'
p427
S'pQYEZTwSVbQ_12_18'
p428
sS'vid1659'
p429
S'pRpeEdMmmQ0_1_18'
p430
sS'vid391'
p431
S'9fkS7wqrzAY_13_25'
p432
sS'vid390'
p433
S'9d57lHEsLU8_1_14'
p434
sS'vid393'
p435
S'9uDPqigcnzw_36_46'
p436
sS'vid392'
p437
S'9gbUM9oHBNI_557_563'
p438
sS'vid395'
p439
S'9xVqwy_4pmQ_36_49'
p440
sS'vid394'
p441
S'9wxB1UQi0MM_18_38'
p442
sS'vid397'
p443
S'A6XrTsLsUbA_4_15'
p444
sS'vid396'
p445
S'9zXqkHvs0po_59_65'
p446
sS'vid399'
p447
S'ACOmKiJDkA4_121_128'
p448
sS'vid398'
p449
S'ACK7SekJWts_140_150'
p450
sS'vid661'
p451
S'JMUAylpXzG0_45_62'
p452
sS'vid660'
p453
S'JM4913Fe-ic_4_15'
p454
sS'vid663'
p455
S'JXSkYkiKO0I_42_46'
p456
sS'vid662'
p457
S'JXSkYkiKO0I_112_116'
p458
sS'vid665'
p459
S'J_evFB7RIKA_104_120'
p460
sS'vid664'
p461
S'JYNzY9jmsQQ_2_10'
p462
sS'vid667'
p463
S'Je3V7U5Ctj4_488_495'
p464
sS'vid666'
p465
S'Jag7oTemldY_12_25'
p466
sS'vid669'
p467
S'Je3V7U5Ctj4_558_563'
p468
sS'vid668'
p469
S'Je3V7U5Ctj4_504_511'
p470
sS'vid1236'
p471
S'cWOPC2kt_IA_8_16'
p472
sS'vid1237'
p473
S'c_-eFL7Sfw4_19_35'
p474
sS'vid1234'
p475
S'cUW_bXll6YM_390_395'
p476
sS'vid1235'
p477
S'cUW_bXll6YM_462_469'
p478
sS'vid1232'
p479
S'cSDkshD2ME0_11_14'
p480
sS'vid1233'
p481
S'cSDkshD2ME0_12_15'
p482
sS'vid1230'
p483
S'cM55xNJ_pfU_1_20'
p484
sS'vid1231'
p485
S'cR2yi-JnGcQ_8_16'
p486
sS'vid1494'
p487
S'kWLNZzuo3do_38_42'
p488
sS'vid1238'
p489
S'c_XV7nPoRg8_2_12'
p490
sS'vid1239'
p491
S'ceOXCFUmxzA_100_110'
p492
sS'vid809'
p493
S'Okg8QYhdtvU_48_53'
p494
sS'vid808'
p495
S'OfgSCMxttCc_86_92'
p496
sS'vid1495'
p497
S'kWLNZzuo3do_38_47'
p498
sS'vid801'
p499
S'OUII8_aOfNM_26_55'
p500
sS'vid800'
p501
S'OO-5-eVEKPA_25_31'
p502
sS'vid803'
p503
S'OVEe1DMsOq0_43_52'
p504
sS'vid802'
p505
S'OUII8_aOfNM_60_69'
p506
sS'vid805'
p507
S'O_Pst-uryQI_1_14'
p508
sS'vid804'
p509
S'O_NWtDShLeg_21_25'
p510
sS'vid807'
p511
S'ObBss94n3gI_35_46'
p512
sS'vid806'
p513
S'OaBmAg6gz30_4_18'
p514
sS'vid1490'
p515
S'kWLNZzuo3do_251_260'
p516
sS'vid1491'
p517
S'kWLNZzuo3do_25_32'
p518
sS'vid489'
p519
S'D1tTBncIsm8_841_848'
p520
sS'vid488'
p521
S'D1tTBncIsm8_725_740'
p522
sS'vid485'
p523
S'D1tTBncIsm8_198_205'
p524
sS'vid484'
p525
S'D1X6qXkLjYE_41_49'
p526
sS'vid487'
p527
S'D1tTBncIsm8_681_688'
p528
sS'vid486'
p529
S'D1tTBncIsm8_248_254'
p530
sS'vid481'
p531
S'CwPfvoqmV1Q_58_61'
p532
sS'vid480'
p533
S'CulG2SMC7DU_14_25'
p534
sS'vid483'
p535
S'Cxxx6wJ1jNo_0_10'
p536
sS'vid482'
p537
S'Cx1We6GX4IM_0_8'
p538
sS'vid719'
p539
S'LF51fban_x4_300_325'
p540
sS'vid718'
p541
S'LEz0puaKNTk_38_48'
p542
sS'vid249'
p543
S'5XxshEdcfAM_85_100'
p544
sS'vid248'
p545
S'5W02895vT8c_460_470'
p546
sS'vid715'
p547
S'L6dEUQ6WiHY_171_186'
p548
sS'vid714'
p549
S'L6dEUQ6WiHY_136_142'
p550
sS'vid245'
p551
S'5U3xz9Ovmhk_99_105'
p552
sS'vid244'
p553
S'5U3xz9Ovmhk_258_265'
p554
sS'vid243'
p555
S'5U3xz9Ovmhk_214_222'
p556
sS'vid242'
p557
S'5QJf-l4lPJw_133_138'
p558
sS'vid713'
p559
S'Kxa0mnDj0bs_15_20'
p560
sS'vid712'
p561
S'Kxa0mnDj0bs_113_124'
p562
sS'vid935'
p563
S'Tied-t1fFsk_15_20'
p564
sS'vid934'
p565
S'TgFmoZj3NoM_10_18'
p566
sS'vid937'
p567
S'Tm1HjqK0ABg_9_15'
p568
sS'vid936'
p569
S'TjLCJKoot4U_43_65'
p570
sS'vid931'
p571
S'Td29-SApubM_48_57'
p572
sS'vid930'
p573
S'TZ860P4iTaM_15_28'
p574
sS'vid933'
p575
S'Ted3imMggC0_48_58'
p576
sS'vid932'
p577
S'TdYN7cePiRI_6_13'
p578
sS'vid939'
p579
S'TsagxA4DKuc_28_41'
p580
sS'vid938'
p581
S'TnPOZVHB3x0_45_55'
p582
sS'vid97'
p583
S'0lh_UWF9ZP4_50_60'
p584
sS'vid96'
p585
S'0lh_UWF9ZP4_38_46'
p586
sS'vid95'
p587
S'0lh_UWF9ZP4_27_31'
p588
sS'vid94'
p589
S'0lh_UWF9ZP4_21_26'
p590
sS'vid93'
p591
S'0lh_UWF9ZP4_215_226'
p592
sS'vid92'
p593
S'0lh_UWF9ZP4_199_207'
p594
sS'vid91'
p595
S'0lh_UWF9ZP4_191_197'
p596
sS'vid90'
p597
S'0lh_UWF9ZP4_183_190'
p598
sS'vid99'
p599
S'0lh_UWF9ZP4_71_77'
p600
sS'vid98'
p601
S'0lh_UWF9ZP4_62_69'
p602
sS'vid1713'
p603
S'qypmR4O1Gwk_0_10'
p604
sS'vid1926'
p605
S'yvfhk1kwKls_103_113'
p606
sS'vid1927'
p607
S'ywHBKayhyvQ_19_28'
p608
sS'vid1889'
p609
S'xpOYXbMDDBY_1_20'
p610
sS'vid1888'
p611
S'xlPyHMkpaQY_1_7'
p612
sS'vid1885'
p613
S'xfRIRSWy0y0_10_20'
p614
sS'vid1884'
p615
S'xdhLQCYQ-nQ_50_63'
p616
sS'vid1928'
p617
S'ywMLb2VfHbI_13_20'
p618
sS'vid1929'
p619
S'yyxtyCaEVqk_250_264'
p620
sS'vid1539'
p621
S'lmCrIZeob4w_23_26'
p622
sS'vid1538'
p623
S'lm0z7eLsbbw_9_23'
p624
sS'vid1535'
p625
S'lfGlDg47How_361_367'
p626
sS'vid1534'
p627
S'lfGlDg47How_110_115'
p628
sS'vid1537'
p629
S'ljGcQocjSs4_38_60'
p630
sS'vid1536'
p631
S'lfGlDg47How_93_98'
p632
sS'vid1531'
p633
S'lc9bA-hvqHU_1_6'
p634
sS'vid1530'
p635
S'lb8J2zCQTlo_3_8'
p636
sS'vid1533'
p637
S'lexLAjh8fPA_27_31'
p638
sS'vid1532'
p639
S'lcu-DwrnYY8_2_5'
p640
sS'vid1085'
p641
S'YZ0-6hdQ0mU_0_3'
p642
sS'vid1084'
p643
S'YXixZrSxefk_6_15'
p644
sS'vid1087'
p645
S'YersIyzsOpc_15_30'
p646
sS'vid1086'
p647
S'Ya-MkA187c8_36_45'
p648
sS'vid1081'
p649
S'YUlG_PKzpvc_0_8'
p650
sS'vid1080'
p651
S'YS1mzzhmWWA_9_16'
p652
sS'vid1083'
p653
S'YXixZrSxefk_49_59'
p654
sS'vid1082'
p655
S'YXixZrSxefk_17_48'
p656
sS'vid1089'
p657
S'Ylb4pnW-jP4_102_113'
p658
sS'vid1088'
p659
S'Yh2N6ZtRBdU_110_120'
p660
sS'vid1409'
p661
S'iCiGjZEV7VI_65_75'
p662
sS'vid1408'
p663
S'i3fd4nE8OCI_174_181'
p664
sS'vid1401'
p665
S'ht2oIYBSoI0_9_21'
p666
sS'vid1400'
p667
S'hoinj6vyQ2g_8_16'
p668
sS'vid1403'
p669
S'htry5uxX0-Y_45_52'
p670
sS'vid1402'
p671
S'htWPOGTagec_2_18'
p672
sS'vid1405'
p673
S'i2GgBwlwV0c_24_31'
p674
sS'vid1404'
p675
S'hxZ-5wELSJM_0_12'
p676
sS'vid1407'
p677
S'i3cHNObcEh8_0_10'
p678
sS'vid1406'
p679
S'i2sRHf9m5KM_28_42'
p680
sS'vid1661'
p681
S'pUPKsHTDZTo_70_85'
p682
sS'vid1660'
p683
S'pRpeEdMmmQ0_65_70'
p684
sS'vid1663'
p685
S'pcjuCotJYj8_50_62'
p686
sS'vid1662'
p687
S'pW9DFPqoIsI_26_50'
p688
sS'vid1665'
p689
S'pfQPRXcihkI_127_138'
p690
sS'vid1664'
p691
S'pdrBPJYfTC8_33_39'
p692
sS'vid1667'
p693
S'pfQPRXcihkI_160_184'
p694
sS'vid1666'
p695
S'pfQPRXcihkI_135_144'
p696
sS'vid1669'
p697
S'po2tcrG6KzM_2_8'
p698
sS'vid1668'
p699
S'pmEKZ6yVewc_0_10'
p700
sS'vid1887'
p701
S'xkNDE1JL6Z8_50_59'
p702
sS'vid1886'
p703
S'xgIIcPSh4EU_0_6'
p704
sS'vid1881'
p705
S'x_8RiVI6rH8_41_54'
p706
sS'vid1880'
p707
S'x_7BrCQdVUs_172_177'
p708
sS'vid1883'
p709
S'xb-Nacm-pKc_78_82'
p710
sS'vid1882'
p711
S'xaPepCVepCg_35_46'
p712
sS'vid1391'
p713
S'hW8TKz2Aea4_40_50'
p714
sS'vid1390'
p715
S'hSgGBHbJrmE_0_17'
p716
sS'vid1393'
p717
S'hWhKdXcqYeU_3_12'
p718
sS'vid1392'
p719
S'hW8TKz2Aea4_5_12'
p720
sS'vid1395'
p721
S'haJn6k5zVnE_1_23'
p722
sS'vid1394'
p723
S'hXn7D6-AAMA_0_9'
p724
sS'vid1397'
p725
S'hcCLIzzB1jQ_1_7'
p726
sS'vid1396'
p727
S'hbE29pZh76I_3_8'
p728
sS'vid1399'
p729
S'hksxtbcS780_7_14'
p730
sS'vid1398'
p731
S'hkkmKk9LcQk_36_43'
p732
sS'vid658'
p733
S'JIoiUNOXGaI_98_104'
p734
sS'vid659'
p735
S'JK1R9k1WDpc_6_15'
p736
sS'vid128'
p737
S'1pw5ZdRhiig_50_59'
p738
sS'vid129'
p739
S'1qU-kF-km1Q_6_16'
p740
sS'vid126'
p741
S'1kYWws89W3Y_0_5'
p742
sS'vid127'
p743
S'1mIyMRPV8kg_9_17'
p744
sS'vid656'
p745
S'JIoiUNOXGaI_34_41'
p746
sS'vid125'
p747
S'1hPxGmTGarM_9_19'
p748
sS'vid122'
p749
S'1dfR0A_BXjw_524_532'
p750
sS'vid123'
p751
S'1dfR0A_BXjw_545_560'
p752
sS'vid652'
p753
S'J7zb8YXrmIA_93_99'
p754
sS'vid653'
p755
S'J8cP93yG1Ao_14_24'
p756
sS'vid1243'
p757
S'cnsjm3fNEec_4_10'
p758
sS'vid654'
p759
S'JAFGw0WRHHU_108_116'
p760
sS'vid1241'
p761
S'clpgffj3sUw_1_12'
p762
sS'vid1240'
p763
S'clKtfGBVI1I_15_28'
p764
sS'vid1247'
p765
S'd-2C_N5anww_1_3'
p766
sS'vid1246'
p767
S'cwkjJrGpoaU_30_41'
p768
sS'vid1245'
p769
S'cs33MNhpRNw_16_21'
p770
sS'vid1244'
p771
S'crfrKqFp0Zg_15_25'
p772
sS'vid1249'
p773
S'd4AGWnHJcaY_6_19'
p774
sS'vid1248'
p775
S'd1zdJO3CqVw_1_35'
p776
sS'vid1719'
p777
S'r4qv_BNlQNk_119_124'
p778
sS'vid124'
p779
S'1dfR0A_BXjw_590_600'
p780
sS'vid657'
p781
S'JIoiUNOXGaI_8_13'
p782
sS'vid650'
p783
S'J3_hkgu6MGc_43_52'
p784
sS'vid651'
p785
S'J4otiwOjQy8_98_112'
p786
sS'vid120'
p787
S'1dfR0A_BXjw_401_408'
p788
sS'vid121'
p789
S'1dfR0A_BXjw_441_448'
p790
sS'vid1715'
p791
S'r0E-0ntoNWo_20_30'
p792
sS'vid1242'
p793
S'cmQ3SiIaWy4_4_20'
p794
sS'vid1717'
p795
S'r2PM0om2El8_18_25'
p796
sS'vid728'
p797
S'Lr8ds5iY5uk_8_15'
p798
sS'vid729'
p799
S'Lt1JijkvSKk_0_10'
p800
sS'vid238'
p801
S'5OuYhq6Zl0g_0_10'
p802
sS'vid239'
p803
S'5OvgDatToBU_0_8'
p804
sS'vid720'
p805
S'LLkehH86ABY_30_36'
p806
sS'vid721'
p807
S'LQ-jv8g1YVI_1_6'
p808
sS'vid722'
p809
S'LSuVRWPoHr0_0_37'
p810
sS'vid723'
p811
S'LYSPQqUvNO0_43_57'
p812
sS'vid724'
p813
S'LacBy2NT3YQ_12_17'
p814
sS'vid725'
p815
S'Li3umATsU0E_1_5'
p816
sS'vid726'
p817
S'LjimLwAhAOQ_5_15'
p818
sS'vid727'
p819
S'LqPIBHAmt4E_22_30'
p820
sS'vid900'
p821
S'RvJH_POzxmc_10_25'
p822
sS'vid901'
p823
S'S-Civm_fbK8_20_26'
p824
sS'vid902'
p825
S'SFFfhAUEoj0_10_16'
p826
sS'vid903'
p827
S'SJZFNwfcSOw_3_18'
p828
sS'vid904'
p829
S'SKhmFSV-XB0_12_18'
p830
sS'vid905'
p831
S'SRzoLVNgHoI_56_66'
p832
sS'vid906'
p833
S'SULWQEAErKw_13_26'
p834
sS'vid907'
p835
S'SZP3Jpbbwj0_52_59'
p836
sS'vid908'
p837
S'SaOqf2d-y30_22_27'
p838
sS'vid909'
p839
S'SaYwh6chmiw_15_40'
p840
sS'vid1712'
p841
S'qvg9eM4Hmzk_4_10'
p842
sS'vid1867'
p843
S'x68Djm_Q0GA_0_10'
p844
sS'vid1866'
p845
S'x1i0UOssll8_141_151'
p846
sS'vid1865'
p847
S'wzfkC2TjdeQ_0_31'
p848
sS'vid1864'
p849
S'wsj_dzz33Ko_31_41'
p850
sS'vid1863'
p851
S'wpUT0DNB3qs_9_19'
p852
sS'vid1862'
p853
S'wn9rDTZj-m4_8_18'
p854
sS'vid1861'
p855
S'wkgGxsuNVSg_34_41'
p856
sS'vid1860'
p857
S'wjH72cZ0GLM_1_10'
p858
sS'vid1869'
p859
S'xBW_uR3kGr4_42_55'
p860
sS'vid1718'
p861
S'r2oI9Y-3wAo_21_28'
p862
sS'vid834'
p863
S'PTxHJMM6hHE_0_15'
p864
sS'vid835'
p865
S'PeUHy0A1GF0_105_112'
p866
sS'vid836'
p867
S'PeUHy0A1GF0_114_121'
p868
sS'vid837'
p869
S'PeUHy0A1GF0_122_127'
p870
sS'vid830'
p871
S'PJnJMp2ZpbA_3_15'
p872
sS'vid831'
p873
S'PNMsPz1701c_3_20'
p874
sS'vid832'
p875
S'POv7JaE3vJ8_40_50'
p876
sS'vid341'
p877
S'8MVo7fje_oE_130_136'
p878
sS'vid838'
p879
S'PeUHy0A1GF0_28_32'
p880
sS'vid839'
p881
S'PeUHy0A1GF0_51_55'
p882
sS'vid348'
p883
S'8PQiaurIiDM_143_151'
p884
sS'vid349'
p885
S'8PQiaurIiDM_173_180'
p886
sS'vid80'
p887
S'0hyZ__3YhZc_598_603'
p888
sS'vid81'
p889
S'0hyZ__3YhZc_632_637'
p890
sS'vid82'
p891
S'0k1Ak8aTMVI_4_12'
p892
sS'vid83'
p893
S'0lh_UWF9ZP4_103_110'
p894
sS'vid84'
p895
S'0lh_UWF9ZP4_138_145'
p896
sS'vid85'
p897
S'0lh_UWF9ZP4_148_155'
p898
sS'vid86'
p899
S'0lh_UWF9ZP4_157_160'
p900
sS'vid87'
p901
S'0lh_UWF9ZP4_165_170'
p902
sS'vid88'
p903
S'0lh_UWF9ZP4_174_178'
p904
sS'vid89'
p905
S'0lh_UWF9ZP4_178_182'
p906
sS'vid333'
p907
S'88p7U5CnoYU_1_10'
p908
sS'vid880'
p909
S'R0e8ojL0vcc_8_14'
p910
sS'vid331'
p911
S'88DOMJ11q2M_34_43'
p912
sS'vid882'
p913
S'R24RktgUi-s_24_28'
p914
sS'vid885'
p915
S'R3a9r8qFlhQ_0_12'
p916
sS'vid884'
p917
S'R2DvpPTfl-E_20_25'
p918
sS'vid887'
p919
S'RJNBxdDQOw4_13_26'
p920
sS'vid334'
p921
S'8BL9qmFRbd4_6_13'
p922
sS'vid1528'
p923
S'lSnWhsmlGec_5_10'
p924
sS'vid1529'
p925
S'labytsb3gfI_146_154'
p926
sS'vid1522'
p927
S'lFdg5CWMTt0_24_28'
p928
sS'vid1523'
p929
S'lFyPUgJCmtU_100_110'
p930
sS'vid1520'
p931
S'lB1UPJ4leqs_0_6'
p932
sS'vid1521'
p933
S'lB1UPJ4leqs_1_6'
p934
sS'vid1526'
p935
S'lKpGc3SCSVw_12_20'
p936
sS'vid1527'
p937
S'lR8RrUBhCQg_5_15'
p938
sS'vid1524'
p939
S'lGk1MA6YP-M_36_48'
p940
sS'vid1525'
p941
S'lKADopH3qFY_0_10'
p942
sS'vid1092'
p943
S'YmXCfQm0_CA_277_284'
p944
sS'vid1093'
p945
S'YmXCfQm0_CA_50_57'
p946
sS'vid1090'
p947
S'YmXCfQm0_CA_109_120'
p948
sS'vid1091'
p949
S'YmXCfQm0_CA_140_156'
p950
sS'vid1096'
p951
S'YndZ9YulpTo_61_76'
p952
sS'vid1097'
p953
S'YwmUgVrUJ4I_0_15'
p954
sS'vid1094'
p955
S'YmXCfQm0_CA_68_75'
p956
sS'vid1095'
p957
S'YmXCfQm0_CA_7_16'
p958
sS'vid1098'
p959
S'Z-An1QQ66f0_13_25'
p960
sS'vid1099'
p961
S'Z10_CDPQKKs_1_6'
p962
sS'vid232'
p963
S'5EXVeP6R3yc_105_108'
p964
sS'vid233'
p965
S'5HAf_INrFy0_3_25'
p966
sS'vid230'
p967
S'5CU2JhYM8tY_14_45'
p968
sS'vid1416'
p969
S'idRc_KkInds_0_6'
p970
sS'vid1417'
p971
S'idXJu0BQRvo_2_6'
p972
sS'vid1414'
p973
S'iarsmqA3dck_19_25'
p974
sS'vid231'
p975
S'5E66Gk3V1Bc_23_30'
p976
sS'vid1412'
p977
S'iTA0rWPE4nY_17_23'
p978
sS'vid1413'
p979
S'iUYWdCxvJCI_2_14'
p980
sS'vid1410'
p981
S'iEW-EkPQywU_61_83'
p982
sS'vid1411'
p983
S'iLr7ZHAq1ro_7_11'
p984
sS'vid236'
p985
S'5K7Ru5s6YIw_8_11'
p986
sS'vid1418'
p987
S'ifS2nXfCyYo_4_34'
p988
sS'vid237'
p989
S'5L5MoemWC6g_10_13'
p990
sS'vid234'
p991
S'5JLi7L1Kwp8_23_30'
p992
sS'vid235'
p993
S'5JSbxHECb-I_97_110'
p994
sS'vid1898'
p995
S'xxHx6s_DbUo_216_222'
p996
sS'vid1899'
p997
S'xxHx6s_DbUo_240_248'
p998
sS'vid1678'
p999
S'q-JHcsqJXWY_0_8'
p1000
sS'vid1679'
p1001
S'q-a6NEotUX8_5_10'
p1002
sS'vid1676'
p1003
S'pzq5fPfsPZg_29_33'
p1004
sS'vid1677'
p1005
S'pzq5fPfsPZg_51_57'
p1006
sS'vid1674'
p1007
S'puineN1UMto_25_29'
p1008
sS'vid1675'
p1009
S'pzq5fPfsPZg_145_160'
p1010
sS'vid1672'
p1011
S'psXeA8sSYdI_25_30'
p1012
sS'vid1673'
p1013
S'ptHkvYrH9fY_2_10'
p1014
sS'vid1670'
p1015
S'pptYu3YQnxY_160_170'
p1016
sS'vid1671'
p1017
S'pqTWUzehCUM_42_47'
p1018
sS'vid1388'
p1019
S'hPyU5KjpWVc_0_35'
p1020
sS'vid1389'
p1021
S'hReROJQpSow_24_30'
p1022
sS'vid1386'
p1023
S'hNOzHvsEmg4_31_36'
p1024
sS'vid1387'
p1025
S'hNPZmTlY_3Q_0_8'
p1026
sS'vid1384'
p1027
S'hM3jzlyNIpc_0_10'
p1028
sS'vid1385'
p1029
S'hNECyt6Bo0A_5_10'
p1030
sS'vid1382'
p1031
S'hJuqBDw_TT4_105_112'
p1032
sS'vid1383'
p1033
S'hJuqBDw_TT4_14_25'
p1034
sS'vid1380'
p1035
S'hJFBXHtxKIc_310_315'
p1036
sS'vid1381'
p1037
S'hJFBXHtxKIc_317_322'
p1038
sS'vid649'
p1039
S'J---aiyznGQ_0_6'
p1040
sS'vid648'
p1041
S'IytNBm8WA1c_63_67'
p1042
sS'vid139'
p1043
S'2F9jX7u5nOg_114_130'
p1044
sS'vid138'
p1045
S'27mxaePkYB4_8_14'
p1046
sS'vid135'
p1047
S'229NvV0SRHw_0_5'
p1048
sS'vid134'
p1049
S'21uB8g-jDZI_70_79'
p1050
sS'vid137'
p1051
S'27hs9W89FuI_0_10'
p1052
sS'vid640'
p1053
S'IpHJffM3G1c_464_470'
p1054
sS'vid131'
p1055
S'1qxMJLkHDLw_0_9'
p1056
sS'vid646'
p1057
S'Ixw6wmoC_xg_116_126'
p1058
sS'vid133'
p1059
S'1sffYOXq4Iw_23_49'
p1060
sS'vid132'
p1061
S'1rECrfrdNTo_200_207'
p1062
sS'vid1250'
p1063
S'd7Gs0uGFLh0_5_13'
p1064
sS'vid1251'
p1065
S'd7eGypGOlOc_13_22'
p1066
sS'vid1252'
p1067
S'dEn5E-TNezw_13_23'
p1068
sS'vid1253'
p1069
S'dJ3ba9zwx6c_5_15'
p1070
sS'vid1254'
p1071
S'dJCtOz32dnw_40_60'
p1072
sS'vid1255'
p1073
S'dJEoDaA6VXc_1_19'
p1074
sS'vid1256'
p1075
S'dMH0bHeiRNg_3_14'
p1076
sS'vid1257'
p1077
S'dP15zlyra3c_0_10'
p1078
sS'vid1258'
p1079
S'dQmaVQZz7EE_1_18'
p1080
sS'vid1259'
p1081
S'dZBIdRGKRhM_13_32'
p1082
sS'vid1708'
p1083
S'qhknaG9ifbs_122_127'
p1084
sS'vid1709'
p1085
S'qqYysi3qotc_148_195'
p1086
sS'vid737'
p1087
S'M4It3DrhbE0_13_22'
p1088
sS'vid736'
p1089
S'Lyp7MiaCXNE_114_120'
p1090
sS'vid735'
p1091
S'LyYJiKxHZz0_0_10'
p1092
sS'vid734'
p1093
S'Ly5D0z9gKtc_15_20'
p1094
sS'vid733'
p1095
S'LwvyrDxM2G0_0_11'
p1096
sS'vid732'
p1097
S'LwicaralvS0_90_104'
p1098
sS'vid731'
p1099
S'Lw0eGsYxElA_11_14'
p1100
sS'vid730'
p1101
S'LuQ0KiMMhoI_49_64'
p1102
sS'vid739'
p1103
S'MHIVmf42Ao4_31_36'
p1104
sS'vid738'
p1105
S'MF88IYF2MHY_25_59'
p1106
sS'vid229'
p1107
S'5CS4nLI2ZX8_50_59'
p1108
sS'vid228'
p1109
S'5AEldiUP408_65_71'
p1110
sS'vid221'
p1111
S'4z3b4mnw5y4_56_60'
p1112
sS'vid220'
p1113
S'4yf2WP6K1gQ_28_32'
p1114
sS'vid223'
p1115
S'5-8z5U-o4O4_0_3'
p1116
sS'vid222'
p1117
S'4zPSShqsq-o_3_16'
p1118
sS'vid225'
p1119
S'53dc4z7HLyg_16_23'
p1120
sS'vid224'
p1121
S'504gE1DA_4g_1_6'
p1122
sS'vid227'
p1123
S'57C93mpt6Xo_358_368'
p1124
sS'vid226'
p1125
S'53dc4z7HLyg_25_29'
p1126
sS'vid919'
p1127
S'SzEbtbNSg04_71_93'
p1128
sS'vid918'
p1129
S'SzEbtbNSg04_70_85'
p1130
sS'vid917'
p1131
S'SzEbtbNSg04_28_48'
p1132
sS'vid916'
p1133
S'SzEbtbNSg04_214_224'
p1134
sS'vid915'
p1135
S'SzEbtbNSg04_111_117'
p1136
sS'vid914'
p1137
S'SrDE9-cDz48_4_12'
p1138
sS'vid913'
p1139
S'Sq7Vt6KC9Yg_17_35'
p1140
sS'vid912'
p1141
S'Sj6GSmDpNDw_0_12'
p1142
sS'vid911'
p1143
S'Sg5rTYrkpnU_35_48'
p1144
sS'vid910'
p1145
S'ScdUht-pM6s_53_63'
p1146
sS'vid1874'
p1147
S'xGdoi3W3Z4o_2_40'
p1148
sS'vid1875'
p1149
S'xOQn1z_oWDY_30_39'
p1150
sS'vid1876'
p1151
S'xPR0xFgCAZY_17_27'
p1152
sS'vid1877'
p1153
S'xSmfK498DjI_1_20'
p1154
sS'vid1870'
p1155
S'xBePrplM4OA_6_18'
p1156
sS'vid1871'
p1157
S'xCFCXzDUGjY_5_9'
p1158
sS'vid1872'
p1159
S'xEDCfcMZlZY_37_41'
p1160
sS'vid1873'
p1161
S'xEDCfcMZlZY_91_100'
p1162
sS'vid1878'
p1163
S'xTd_IdIcB4s_2_10'
p1164
sS'vid1879'
p1165
S'xXlWsBhFvis_6_10'
p1166
sS'vid355'
p1167
S'8mSUD7JGNO0_174_181'
p1168
sS'vid354'
p1169
S'8jP8CC2rKj4_80_88'
p1170
sS'vid357'
p1171
S'8sARjdhSvpo_167_176'
p1172
sS'vid356'
p1173
S'8mSUD7JGNO0_198_204'
p1174
sS'vid351'
p1175
S'8PQiaurIiDM_94_99'
p1176
sS'vid350'
p1177
S'8PQiaurIiDM_247_255'
p1178
sS'vid353'
p1179
S'8e0yXMa708Y_24_33'
p1180
sS'vid352'
p1181
S'8VUbN3hkdBo_36_50'
p1182
sS'vid829'
p1183
S'PHDmVhShE80_82_86'
p1184
sS'vid828'
p1185
S'PHDmVhShE80_78_82'
p1186
sS'vid359'
p1187
S'8yoUaH6wGLs_22_30'
p1188
sS'vid358'
p1189
S'8yS2wqwActs_2_14'
p1190
sS'vid1730'
p1191
S'rlQ2kW-FvMk_66_79'
p1192
sS'vid1737'
p1193
S'rw9h_574HxE_161_166'
p1194
sS'vid1736'
p1195
S'rw9h_574HxE_13_18'
p1196
sS'vid79'
p1197
S'0hyZ__3YhZc_575_580'
p1198
sS'vid78'
p1199
S'0hyZ__3YhZc_562_568'
p1200
sS'vid75'
p1201
S'0hyZ__3YhZc_410_417'
p1202
sS'vid74'
p1203
S'0hyZ__3YhZc_388_394'
p1204
sS'vid77'
p1205
S'0hyZ__3YhZc_485_490'
p1206
sS'vid76'
p1207
S'0hyZ__3YhZc_418_424'
p1208
sS'vid71'
p1209
S'0hyZ__3YhZc_352_356'
p1210
sS'vid70'
p1211
S'0hyZ__3YhZc_341_348'
p1212
sS'vid73'
p1213
S'0hyZ__3YhZc_380_384'
p1214
sS'vid72'
p1215
S'0hyZ__3YhZc_364_370'
p1216
sS'vid1868'
p1217
S'x8Ul09tk6zk_0_8'
p1218
sS'vid346'
p1219
S'8MVo7fje_oE_85_90'
p1220
sS'vid347'
p1221
S'8NFoN0K3bPg_20_28'
p1222
sS'vid344'
p1223
S'8MVo7fje_oE_166_171'
p1224
sS'vid345'
p1225
S'8MVo7fje_oE_180_185'
p1226
sS'vid342'
p1227
S'8MVo7fje_oE_139_144'
p1228
sS'vid343'
p1229
S'8MVo7fje_oE_153_158'
p1230
sS'vid340'
p1231
S'8MVo7fje_oE_125_130'
p1232
sS'vid833'
p1233
S'PQbkdRbir0M_45_53'
p1234
sS'vid1427'
p1235
S'izU1dDwnuMY_80_92'
p1236
sS'vid1426'
p1237
S'iyAoiWeD53k_120_127'
p1238
sS'vid1425'
p1239
S'iwpnUHFhjWc_9_14'
p1240
sS'vid1424'
p1241
S'iwpnUHFhjWc_84_94'
p1242
sS'vid1423'
p1243
S'iuqVpMdb1NM_35_43'
p1244
sS'vid1422'
p1245
S'itxzpFW1z7E_22_36'
p1246
sS'vid1421'
p1247
S'io2dbV-Qbus_215_247'
p1248
sS'vid1420'
p1249
S'inzk2fTUe1w_1_15'
p1250
sS'vid1069'
p1251
S'Xvy21KrDv8I_0_10'
p1252
sS'vid1068'
p1253
S'XtQdAPV2UZs_4_11'
p1254
sS'vid1067'
p1255
S'Xp6rxW4hFFo_32_40'
p1256
sS'vid1066'
p1257
S'Xh6rdpJNaf0_0_15'
p1258
sS'vid1065'
p1259
S'XdB0pVjFYoU_1_8'
p1260
sS'vid1064'
p1261
S'X_NLV2KCnIE_60_70'
p1262
sS'vid1063'
p1263
S'XZ0Ch_ClBfo_120_127'
p1264
sS'vid1062'
p1265
S'XOAgUVVwKEA_8_20'
p1266
sS'vid1061'
p1267
S'XNzXXiE6qR4_0_10'
p1268
sS'vid1060'
p1269
S'XNV7hKVu-Xg_40_47'
p1270
sS'vid1463'
p1271
S'k5OKBX2e7xA_19_32'
p1272
sS'vid1462'
p1273
S'k4hhWYtaQ14_0_10'
p1274
sS'vid1461'
p1275
S'k06Ge9ANKM8_5_16'
p1276
sS'vid1460'
p1277
S'k-SWy-sU8cE_5_10'
p1278
sS'vid1467'
p1279
S'kBjUDCyDCuI_20_26'
p1280
sS'vid1466'
p1281
S'kBMsuhDvg88_45_64'
p1282
sS'vid1465'
p1283
S'k9Brw_0gncU_14_33'
p1284
sS'vid1464'
p1285
S'k8l4ETsylVY_9_18'
p1286
sS'vid1469'
p1287
S'kEGmZDpZ_RE_295_330'
p1288
sS'vid1468'
p1289
S'kEGmZDpZ_RE_248_293'
p1290
sS'vid1609'
p1291
S'nd0ToNwccl4_12_17'
p1292
sS'vid1608'
p1293
S'nc8hwLaOyZU_1_19'
p1294
sS'vid1603'
p1295
S'n_Z0-giaspE_437_447'
p1296
sS'vid1602'
p1297
S'n_Z0-giaspE_379_387'
p1298
sS'vid1601'
p1299
S'n_Z0-giaspE_270_278'
p1300
sS'vid1600'
p1301
S'n_Z0-giaspE_168_193'
p1302
sS'vid1607'
p1303
S'nc0fVlaTYEs_34_44'
p1304
sS'vid1606'
p1305
S'nb12bAaKzvA_0_10'
p1306
sS'vid1605'
p1307
S'nau1vCzyFQ4_37_54'
p1308
sS'vid1604'
p1309
S'n_Z0-giaspE_62_78'
p1310
sS'vid108'
p1311
S'0xx13BuvVmo_25_36'
p1312
sS'vid109'
p1313
S'11xs9mFKObs_0_8'
p1314
sS'vid100'
p1315
S'0lh_UWF9ZP4_79_82'
p1316
sS'vid101'
p1317
S'0lh_UWF9ZP4_82_87'
p1318
sS'vid102'
p1319
S'0lh_UWF9ZP4_94_103'
p1320
sS'vid103'
p1321
S'0piwbTivpDg_10_40'
p1322
sS'vid104'
p1323
S'0sUL0KCIc48_15_25'
p1324
sS'vid105'
p1325
S'0vmoZEaN_-o_4_12'
p1326
sS'vid106'
p1327
S'0vmoZEaN_-o_5_21'
p1328
sS'vid107'
p1329
S'0wutCy2ZGOQ_4_10'
p1330
sS'vid1269'
p1331
S'dtn0PuxgfkM_0_5'
p1332
sS'vid1268'
p1333
S'drsPD5fI1IA_170_180'
p1334
sS'vid1265'
p1335
S'dhxE9CNeVeY_0_12'
p1336
sS'vid1264'
p1337
S'dfOuTx66bJU_34_39'
p1338
sS'vid1267'
p1339
S'dq7agmFWkq0_5_9'
p1340
sS'vid1266'
p1341
S'dmyz_f8Sx14_56_66'
p1342
sS'vid1261'
p1343
S'dabI5gfaFm4_19_25'
p1344
sS'vid1260'
p1345
S'd_BWuttLRFM_42_52'
p1346
sS'vid1263'
p1347
S'dfOuTx66bJU_11_14'
p1348
sS'vid1262'
p1349
S'dc4UltkRJsw_53_59'
p1350
sS'vid1117'
p1351
S'ZnLgsasu82g_71_81'
p1352
sS'vid691'
p1353
S'K-czl524zxk_6_15'
p1354
sS'vid1115'
p1355
S'Zg0p5TXi_Cc_30_46'
p1356
sS'vid1114'
p1357
S'ZdlG8fjGJlo_78_87'
p1358
sS'vid1113'
p1359
S'ZdNP0dXCx2I_78_90'
p1360
sS'vid1112'
p1361
S'ZbzDGXEwtGc_6_15'
p1362
sS'vid1111'
p1363
S'ZbtpcGi2DWY_56_62'
p1364
sS'vid1110'
p1365
S'ZbtpcGi2DWY_161_170'
p1366
sS'vid698'
p1367
S'KPPCwmU5OHQ_227_238'
p1368
sS'vid699'
p1369
S'KPPCwmU5OHQ_258_266'
p1370
sS'vid1119'
p1371
S'Zqmx-nXhLAg_0_10'
p1372
sS'vid1118'
p1373
S'Zoz0HcCB1vU_0_10'
p1374
sS'vid1287'
p1375
S'eZLxohGP4IE_147_158'
p1376
sS'vid1286'
p1377
S'eVSQiPbepXg_83_93'
p1378
sS'vid1285'
p1379
S'eVSQiPbepXg_44_49'
p1380
sS'vid1284'
p1381
S'eTnlw7v8ea0_36_50'
p1382
sS'vid1283'
p1383
S'ePujnD4qJO0_62_77'
p1384
sS'vid1282'
p1385
S'eKtsMfmQ_0s_61_68'
p1386
sS'vid1281'
p1387
S'e996zZ0uV_A_68_72'
p1388
sS'vid1280'
p1389
S'e996zZ0uV_A_196_204'
p1390
sS'vid1289'
p1391
S'eZLxohGP4IE_190_201'
p1392
sS'vid1288'
p1393
S'eZLxohGP4IE_15_25'
p1394
sS'vid742'
p1395
S'MJNStEgDKXU_3_10'
p1396
sS'vid743'
p1397
S'MJoxGpEswOI_9_16'
p1398
sS'vid740'
p1399
S'MHWxjWwAbwM_10_25'
p1400
sS'vid741'
p1401
S'MICawzo1MqI_3_13'
p1402
sS'vid746'
p1403
S'MSrJTeKNzdI_32_36'
p1404
sS'vid747'
p1405
S'MTjrZthHwJQ_2_11'
p1406
sS'vid744'
p1407
S'MMnnqzOoMF0_68_72'
p1408
sS'vid213'
p1409
S'4kQnrKvOTNg_15_24'
p1410
sS'vid748'
p1411
S'MTkGPfMRXtc_5_21'
p1412
sS'vid749'
p1413
S'MW21lp833Vo_143_149'
p1414
sS'vid218'
p1415
S'4xVGpDmA4lE_23_33'
p1416
sS'vid219'
p1417
S'4yYapi-5QYQ_33_57'
p1418
sS'vid584'
p1419
S'H1Bok7Dg7g8_21_26'
p1420
sS'vid585'
p1421
S'H7vezmDeZaw_2_7'
p1422
sS'vid586'
p1423
S'H9Oplnr8WcE_24_34'
p1424
sS'vid587'
p1425
S'HAjwXjwN9-A_16_24'
p1426
sS'vid580'
p1427
S'GtrTNldo0LI_33_46'
p1428
sS'vid581'
p1429
S'Gw0FU733zzg_58_66'
p1430
sS'vid582'
p1431
S'GyIs9B3A1Z0_0_7'
p1432
sS'vid583'
p1433
S'GzlnqrzdYHU_32_40'
p1434
sS'vid588'
p1435
S'HBCJYhUjVf0_0_9'
p1436
sS'vid589'
p1437
S'HDcIB1e9s5A_28_34'
p1438
sS'vid968'
p1439
S'Uc63MFVwfrs_355_372'
p1440
sS'vid969'
p1441
S'Uc63MFVwfrs_360_372'
p1442
sS'vid962'
p1443
S'UbmZAe5u5FI_16_23'
p1444
sS'vid963'
p1445
S'UbmZAe5u5FI_26_33'
p1446
sS'vid960'
p1447
S'UbmZAe5u5FI_111_115'
p1448
sS'vid961'
p1449
S'UbmZAe5u5FI_132_141'
p1450
sS'vid966'
p1451
S'UbmZAe5u5FI_60_70'
p1452
sS'vid967'
p1453
S'UbmZAe5u5FI_88_98'
p1454
sS'vid964'
p1455
S'UbmZAe5u5FI_36_40'
p1456
sS'vid965'
p1457
S'UbmZAe5u5FI_44_55'
p1458
sS'vid1841'
p1459
S'veE0E79dEEc_18_45'
p1460
sS'vid1840'
p1461
S'v_tGw5gwlEw_136_152'
p1462
sS'vid1843'
p1463
S'vloe_60s_dk_0_9'
p1464
sS'vid1842'
p1465
S'vfktGc_qx-w_2_18'
p1466
sS'vid1845'
p1467
S'vub04F8CWng_32_41'
p1468
sS'vid1844'
p1469
S'vpR0L3sIvoo_15_49'
p1470
sS'vid1847'
p1471
S'vuvpbeQak9Q_23_29'
p1472
sS'vid1846'
p1473
S'vulNlhUI6m0_7_27'
p1474
sS'vid1849'
p1475
S'w28TljSqtW8_64_75'
p1476
sS'vid1848'
p1477
S'vz71JKcpeUU_0_10'
p1478
sS'vid360'
p1479
S'8yuPGwxwdPs_1_10'
p1480
sS'vid361'
p1481
S'8z-XGiU1KN4_9_17'
p1482
sS'vid362'
p1483
S'93n_oYVCLpk_9_12'
p1484
sS'vid363'
p1485
S'953PkxFNiko_82_85'
p1486
sS'vid364'
p1487
S'97JhYpoWxzY_0_4'
p1488
sS'vid365'
p1489
S'98Alrg4pFXs_148_153'
p1490
sS'vid366'
p1491
S'98shpdib9sg_55_62'
p1492
sS'vid367'
p1493
S'992zi9V3oiQ_15_17'
p1494
sS'vid368'
p1495
S'9BScZRpF7SI_31_36'
p1496
sS'vid369'
p1497
S'9Bxknsvy3jQ_53_58'
p1498
sS'vid68'
p1499
S'0hyZ__3YhZc_289_295'
p1500
sS'vid69'
p1501
S'0hyZ__3YhZc_302_307'
p1502
sS'vid66'
p1503
S'0bSz70pYAP0_5_15'
p1504
sS'vid67'
p1505
S'0hyZ__3YhZc_279_283'
p1506
sS'vid64'
p1507
S'0RWJEOScToE_414_421'
p1508
sS'vid65'
p1509
S'0SMOK2ql7Pg_5_12'
p1510
sS'vid62'
p1511
S'0NPtAv3_uVI_46_54'
p1512
sS'vid63'
p1513
S'0ONJfp95yoE_1_10'
p1514
sS'vid60'
p1515
S'0IDJG0q9j_k_1_24'
p1516
sS'vid61'
p1517
S'0M-PyX2DbZc_25_31'
p1518
sS'vid1636'
p1519
S'ok4cM6WTA5E_120_133'
p1520
sS'vid1637'
p1521
S'ok4cM6WTA5E_142_150'
p1522
sS'vid1638'
p1523
S'ok4cM6WTA5E_178_184'
p1524
sS'vid1639'
p1525
S'omGWjiwxcTE_18_23'
p1526
sS'vid817'
p1527
S'P4IjNV3lZkQ_136_144'
p1528
sS'vid1078'
p1529
S'YJ2aGe7CLBo_25_35'
p1530
sS'vid1079'
p1531
S'YRSOc193Pxc_68_73'
p1532
sS'vid1074'
p1533
S'Y4BeJ-64294_20_30'
p1534
sS'vid1075'
p1535
S'Y4gaJn0wlDE_0_10'
p1536
sS'vid1076'
p1537
S'YAud4eS3DoA_54_65'
p1538
sS'vid1077'
p1539
S'YEmS8ZQIhTA_7_20'
p1540
sS'vid1070'
p1541
S'Xwrl4htUPjo_22_38'
p1542
sS'vid1071'
p1543
S'Xxcv5jvRmcg_39_46'
p1544
sS'vid1072'
p1545
S'XzCcRzEa83U_1_8'
p1546
sS'vid1073'
p1547
S'XzCcRzEa83U_39_46'
p1548
sS'vid1470'
p1549
S'kEGmZDpZ_RE_352_370'
p1550
sS'vid1471'
p1551
S'kI6MWZrl8v8_149_161'
p1552
sS'vid1472'
p1553
S'kIZanu909lw_67_80'
p1554
sS'vid1473'
p1555
S'kJY5BRCNAs4_3_6'
p1556
sS'vid1474'
p1557
S'kKGehSw5ht8_39_45'
p1558
sS'vid1475'
p1559
S'kNHivduxQWg_0_14'
p1560
sS'vid1476'
p1561
S'kRNHJSc4AXE_220_228'
p1562
sS'vid1477'
p1563
S'kSzS_lFtJDk_55_70'
p1564
sS'vid1478'
p1565
S'kWLNZzuo3do_145_151'
p1566
sS'vid1479'
p1567
S'kWLNZzuo3do_147_153'
p1568
sS'vid1618'
p1569
S'nrZyPuRd5pU_85_92'
p1570
sS'vid1619'
p1571
S'nwk4m329bLw_2_10'
p1572
sS'vid1610'
p1573
S'ngHDYzhDBk4_24_29'
p1574
sS'vid1611'
p1575
S'ngHDYzhDBk4_5_14'
p1576
sS'vid1612'
p1577
S'nhm_APPwhWk_6_12'
p1578
sS'vid1613'
p1579
S'nlU3crMsbWI_19_23'
p1580
sS'vid1614'
p1581
S'nohvigNMsbo_199_207'
p1582
sS'vid1615'
p1583
S'nq4hG6qgyPs_184_195'
p1584
sS'vid1616'
p1585
S'nq4hG6qgyPs_240_251'
p1586
sS'vid1617'
p1587
S'nq4hG6qgyPs_370_377'
p1588
sS'vid117'
p1589
S'1_6V30igzIk_5_15'
p1590
sS'vid116'
p1591
S'1TjqADyYyxI_36_45'
p1592
sS'vid115'
p1593
S'1Sp2__RCT0c_11_15'
p1594
sS'vid114'
p1595
S'1RchFBCT9JU_43_53'
p1596
sS'vid113'
p1597
S'1QVn0FffExM_14_24'
p1598
sS'vid112'
p1599
S'1N_Ic2pBM1o_2_23'
p1600
sS'vid111'
p1601
S'1Dty_eGY9Ec_123_133'
p1602
sS'vid110'
p1603
S'16iNk1hLJt4_37_40'
p1604
sS'vid119'
p1605
S'1dYpcVv6n3Y_0_18'
p1606
sS'vid118'
p1607
S'1dA1RQgPN3c_72_82'
p1608
sS'vid1278'
p1609
S'e4QGnppJ-ys_6_14'
p1610
sS'vid1279'
p1611
S'e996zZ0uV_A_152_163'
p1612
sS'vid1272'
p1613
S'e-j59PqJjSM_264_277'
p1614
sS'vid1273'
p1615
S'e-j59PqJjSM_405_416'
p1616
sS'vid1270'
p1617
S'dtwXtwJByYk_5_14'
p1618
sS'vid1271'
p1619
S'e-j59PqJjSM_163_173'
p1620
sS'vid1276'
p1621
S'e3XkmpNcSt4_8_19'
p1622
sS'vid1277'
p1623
S'e40bBP0_AbE_64_67'
p1624
sS'vid1274'
p1625
S'e-j59PqJjSM_50_98'
p1626
sS'vid1275'
p1627
S'e-sf-hyrkTs_20_35'
p1628
sS'vid1104'
p1629
S'Z8rTzW9Gb6Y_116_123'
p1630
sS'vid1105'
p1631
S'ZDoy9S82ETA_5_15'
p1632
sS'vid1106'
p1633
S'ZK4W-2ifl6I_1_28'
p1634
sS'vid1107'
p1635
S'ZL7P_XmSnEY_205_209'
p1636
sS'vid1100'
p1637
S'Z19zFlPah-o_6_11'
p1638
sS'vid708'
p1639
S'KpmVL4ANieA_0_9'
p1640
sS'vid1102'
p1641
S'Z3m9V8qPXhQ_13_24'
p1642
sS'vid1103'
p1643
S'Z3rj9LbCOaM_0_12'
p1644
sS'vid687'
p1645
S'JsD6uEZsIsU_45_58'
p1646
sS'vid686'
p1647
S'JsD6uEZsIsU_1_47'
p1648
sS'vid685'
p1649
S'JpjAgSvr42k_0_12'
p1650
sS'vid257'
p1651
S'5x_OGEdO6Z8_0_21'
p1652
sS'vid1108'
p1653
S'ZN2_czSBSD0_240_250'
p1654
sS'vid1109'
p1655
S'ZYaxg5NZW_g_21_27'
p1656
sS'vid681'
p1657
S'JledeVyklPw_1_6'
p1658
sS'vid680'
p1659
S'JktNQQnLblQ_4_9'
p1660
sS'vid1294'
p1661
S'eiyuac7hA4A_4_47'
p1662
sS'vid258'
p1663
S'5zkCnHUnoYY_69_74'
p1664
sS'vid1296'
p1665
S'elQqQfux7Po_12_22'
p1666
sS'vid1297'
p1667
S'emblM4a76jg_5_15'
p1668
sS'vid1290'
p1669
S'eb-Zp4pJLKk_2_19'
p1670
sS'vid1291'
p1671
S'ecVwxlXc1PQ_0_12'
p1672
sS'vid1292'
p1673
S'ecm9gf2Pgkc_1_24'
p1674
sS'vid1293'
p1675
S'edqyq4Q-7uU_103_109'
p1676
sS'vid1298'
p1677
S'eoP-SCgYM2w_49_60'
p1678
sS'vid1299'
p1679
S'eroAmLZ85DI_28_35'
p1680
sS'vid751'
p1681
S'MWvCcwTw7Ac_154_181'
p1682
sS'vid750'
p1683
S'MW21lp833Vo_8_16'
p1684
sS'vid753'
p1685
S'MWzeInQaUk4_12_20'
p1686
sS'vid752'
p1687
S'MWvCcwTw7Ac_78_86'
p1688
sS'vid755'
p1689
S'M_TP6UTrh30_343_358'
p1690
sS'vid754'
p1691
S'MY-rGamtAJc_6_22'
p1692
sS'vid757'
p1693
S'MoqC84sXu88_47_59'
p1694
sS'vid756'
p1695
S'MdOAr_4FJvc_5_15'
p1696
sS'vid759'
p1697
S'MrMG15y3rWU_5_13'
p1698
sS'vid758'
p1699
S'MqS82kBtUHQ_0_12'
p1700
sS'vid209'
p1701
S'4eJJF11bIxM_1_9'
p1702
sS'vid208'
p1703
S'4cgzdXlJksU_83_90'
p1704
sS'vid593'
p1705
S'HN-ccxID8IM_3_10'
p1706
sS'vid592'
p1707
S'HM-ZDoRWiH4_0_5'
p1708
sS'vid591'
p1709
S'HJHPB_Y8GZE_259_263'
p1710
sS'vid590'
p1711
S'HJHPB_Y8GZE_22_28'
p1712
sS'vid597'
p1713
S'HVR7KpItLfA_62_70'
p1714
sS'vid596'
p1715
S'HV12kTtdTT4_5_14'
p1716
sS'vid595'
p1717
S'HPFLN5azwtA_56_63'
p1718
sS'vid594'
p1719
S'HO_ovIrLWfQ_1_11'
p1720
sS'vid599'
p1721
S'HZ-BuDDmvVk_0_10'
p1722
sS'vid598'
p1723
S'HYbEf-JKZnA_13_26'
p1724
sS'vid979'
p1725
S'UxhKb-zZoWE_0_15'
p1726
sS'vid978'
p1727
S'UqBafx3iRKw_22_29'
p1728
sS'vid971'
p1729
S'UdcObAQ5OOM_15_30'
p1730
sS'vid970'
p1731
S'Ud3Qy8m6OxQ_52_62'
p1732
sS'vid973'
p1733
S'UgUFP5baQ9Y_0_7'
p1734
sS'vid972'
p1735
S'UgUFP5baQ9Y_0_10'
p1736
sS'vid975'
p1737
S'UhI-p6AysWY_25_30'
p1738
sS'vid974'
p1739
S'Ugb_uH72d0I_8_17'
p1740
sS'vid977'
p1741
S'UoPU8F9mus8_258_262'
p1742
sS'vid976'
p1743
S'UnWgz-mVMXU_2_6'
p1744
sS'vid1858'
p1745
S'wgrrQwLdME8_0_10'
p1746
sS'vid1859'
p1747
S'wgrrQwLdME8_66_74'
p1748
sS'vid1856'
p1749
S'wSwwS_0MKEc_68_78'
p1750
sS'vid1857'
p1751
S'wX-Bl25Htag_104_115'
p1752
sS'vid1854'
p1753
S'wNv74rvkAw8_30_40'
p1754
sS'vid1855'
p1755
S'wON-YuA1GjA_3_63'
p1756
sS'vid1852'
p1757
S'wFX6bXLbHW4_83_90'
p1758
sS'vid1853'
p1759
S'wLUH7qA_6sA_90_115'
p1760
sS'vid1850'
p1761
S'w9mqbwOIkVg_6_12'
p1762
sS'vid1851'
p1763
S'wFPmKChNrhU_3_11'
p1764
sS'vid379'
p1765
S'9OvXb1fot74_21_29'
p1766
sS'vid378'
p1767
S'9LSuyLyuUiM_3_6'
p1768
sS'vid377'
p1769
S'9LOJmQQktHA_10_18'
p1770
sS'vid376'
p1771
S'9LHg5RUGukI_63_68'
p1772
sS'vid375'
p1773
S'9LHg5RUGukI_58_63'
p1774
sS'vid374'
p1775
S'9IrWyZ0KZuk_160_166'
p1776
sS'vid373'
p1777
S'9HTUcMjWB3g_143_151'
p1778
sS'vid372'
p1779
S'9HTUcMjWB3g_134_138'
p1780
sS'vid371'
p1781
S'9HTUcMjWB3g_122_128'
p1782
sS'vid370'
p1783
S'9HDUADeA2xg_3_31'
p1784
sS'vid59'
p1785
S'0I4VKj4d0WI_24_40'
p1786
sS'vid58'
p1787
S'0GXq1An3yHI_22_35'
p1788
sS'vid53'
p1789
S'05gNigkqfNU_24_32'
p1790
sS'vid52'
p1791
S'05gNigkqfNU_11_23'
p1792
sS'vid51'
p1793
S'05Gtb7_9tLU_0_9'
p1794
sS'vid50'
p1795
S'04Gt01vatkk_308_321'
p1796
sS'vid57'
p1797
S'08pVpBq706k_175_212'
p1798
sS'vid56'
p1799
S'06CbMa0kDr8_3_13'
p1800
sS'vid55'
p1801
S'05gNigkqfNU_78_84'
p1802
sS'vid54'
p1803
S'05gNigkqfNU_25_34'
p1804
sS'vid1757'
p1805
S's9TklvyLFyI_177_191'
p1806
sS'vid1756'
p1807
S's8utHZYTNTs_35_42'
p1808
sS'vid1759'
p1809
S'sBjr8UJOpsQ_181_195'
p1810
sS'vid1758'
p1811
S'sBjr8UJOpsQ_149_169'
p1812
sS'vid1970'
p1813
S'zzit5b_-ukg_5_20'
p1814
sS'vid405'
p1815
S'ACOmKiJDkA4_23_30'
p1816
sS'vid404'
p1817
S'ACOmKiJDkA4_20_26'
p1818
sS'vid951'
p1819
S'UXs3eq68ZjE_255_260'
p1820
sS'vid406'
p1821
S'ACOmKiJDkA4_47_54'
p1822
sS'vid401'
p1823
S'ACOmKiJDkA4_146_153'
p1824
sS'vid400'
p1825
S'ACOmKiJDkA4_130_144'
p1826
sS'vid403'
p1827
S'ACOmKiJDkA4_175_182'
p1828
sS'vid402'
p1829
S'ACOmKiJDkA4_161_170'
p1830
sS'vid1687'
p1831
S'q8t7iSGAKik_11_31'
p1832
sS'vid1686'
p1833
S'q7pOFn8s4zc_27_36'
p1834
sS'vid1689'
p1835
S'q9ew_nITQWY_54_62'
p1836
sS'vid1049'
p1837
S'WqwcWk1In_g_46_54'
p1838
sS'vid1048'
p1839
S'WqQonRVs7WA_0_10'
p1840
sS'vid1599'
p1841
S'nZSFn51l3hc_660_666'
p1842
sS'vid1598'
p1843
S'nZSFn51l3hc_480_485'
p1844
sS'vid1041'
p1845
S'WWf0Z6ak3Dg_5_15'
p1846
sS'vid1040'
p1847
S'WV9K6MbLjHA_106_116'
p1848
sS'vid1043'
p1849
S'W_iR4YVCxUY_8_15'
p1850
sS'vid1042'
p1851
S'WZTGqvbqOFE_28_34'
p1852
sS'vid1045'
p1853
S'WinaH9SkW9c_11_38'
p1854
sS'vid1044'
p1855
S'WeOU0Iba1Xg_1_30'
p1856
sS'vid1047'
p1857
S'WpB4-eLyiBc_10_20'
p1858
sS'vid1046'
p1859
S'Wnz3IevSNg0_1_8'
p1860
sS'vid1449'
p1861
S'jcRCn7MeSbo_71_82'
p1862
sS'vid1448'
p1863
S'jcIrD7rNvTM_10_21'
p1864
sS'vid1445'
p1865
S'jW77z3-SrO4_56_63'
p1866
sS'vid1444'
p1867
S'jTnrm338_KY_34_42'
p1868
sS'vid1447'
p1869
S'jbzaMtPYtl8_48_58'
p1870
sS'vid1446'
p1871
S'jZ8X8e7eRVk_24_27'
p1872
sS'vid1441'
p1873
S'jMO3jGQeqyk_3_6'
p1874
sS'vid1440'
p1875
S'jLgmCY1fEE8_16_26'
p1876
sS'vid1443'
p1877
S'jTaLGh_MKCM_5_20'
p1878
sS'vid1442'
p1879
S'jPBxl9gFqNY_110_117'
p1880
sS'vid162'
p1881
S'2jkExrrm_sQ_19_25'
p1882
sS'vid163'
p1883
S'2mUMTFnQWaw_1_9'
p1884
sS'vid160'
p1885
S'2YhDTpzxd3c_98_101'
p1886
sS'vid161'
p1887
S'2jXxtQRy47A_30_38'
p1888
sS'vid166'
p1889
S'30GeJHYoerk_63_75'
p1890
sS'vid167'
p1891
S'30GeJHYoerk_80_85'
p1892
sS'vid164'
p1893
S'2xpIT0L4GqE_1_10'
p1894
sS'vid165'
p1895
S'30GeJHYoerk_121_126'
p1896
sS'vid168'
p1897
S'30PpKtVT8Z4_35_50'
p1898
sS'vid169'
p1899
S'32_A0-er4Ws_16_20'
p1900
sS'vid1131'
p1901
S'_KMoC6ZdeXs_10_16'
p1902
sS'vid1130'
p1903
S'_JorUS-8Nlg_63_73'
p1904
sS'vid1133'
p1905
S'_O9kWD8nuRU_25_35'
p1906
sS'vid1132'
p1907
S'_O9kWD8nuRU_16_23'
p1908
sS'vid1135'
p1909
S'_O9kWD8nuRU_45_49'
p1910
sS'vid1134'
p1911
S'_O9kWD8nuRU_37_43'
p1912
sS'vid1137'
p1913
S'_O9kWD8nuRU_70_76'
p1914
sS'vid1136'
p1915
S'_O9kWD8nuRU_50_56'
p1916
sS'vid1139'
p1917
S'_OBlgSz8sSM_15_32'
p1918
sS'vid1138'
p1919
S'_O9kWD8nuRU_77_81'
p1920
sS'vid716'
p1921
S'L8h2DazQZJY_0_10'
p1922
sS'vid1919'
p1923
S'yYA7YXIKbg4_9_14'
p1924
sS'vid1918'
p1925
S'yU5sxW9bErQ_0_17'
p1926
sS'vid1917'
p1927
S'yREFkmrrYiw_51_57'
p1928
sS'vid1916'
p1929
S'yPNFVj-pISU_105_115'
p1930
sS'vid1915'
p1931
S'yOnRm3TP6hM_0_12'
p1932
sS'vid1914'
p1933
S'yNy9jTeolUk_8_12'
p1934
sS'vid1913'
p1935
S'yId1rg5-ac0_40_50'
p1936
sS'vid1912'
p1937
S'yFPHhRat6bc_160_210'
p1938
sS'vid1911'
p1939
S'yC4eEuURH8c_19_28'
p1940
sS'vid1101'
p1941
S'Z3XarHZ3HpY_10_17'
p1942
sS'vid768'
p1943
S'N6SglZopfmk_97_111'
p1944
sS'vid769'
p1945
S'NFxWwI0J3As_78_84'
p1946
sS'vid764'
p1947
S'MwOEK-KXSPc_1_10'
p1948
sS'vid765'
p1949
S'N2Cm0SLr0ZE_18_29'
p1950
sS'vid766'
p1951
S'N3A7944_UJw_63_70'
p1952
sS'vid688'
p1953
S'JsmHZlUgf1w_0_21'
p1954
sS'vid760'
p1955
S'MrQd1zUVRUM_103_110'
p1956
sS'vid761'
p1957
S'Ms3QdGIzltU_10_20'
p1958
sS'vid762'
p1959
S'Ms3QdGIzltU_1_16'
p1960
sS'vid763'
p1961
S'Mutb8BHFvzk_15_20'
p1962
sS'vid1625'
p1963
S'oBt257I-pL0_0_10'
p1964
sS'vid711'
p1965
S'KrBeBabazDU_15_20'
p1966
sS'vid1627'
p1967
S'oDcd2JbOyzg_85_98'
p1968
sS'vid1626'
p1969
S'oDcd2JbOyzg_38_55'
p1970
sS'vid1621'
p1971
S'o4OsYxsNGMI_77_82'
p1972
sS'vid1620'
p1973
S'o2X6UCaNqKA_27_36'
p1974
sS'vid568'
p1975
S'GY5Dl00LrEI_2_13'
p1976
sS'vid569'
p1977
S'G_hxdUG6QXE_23_28'
p1978
sS'vid566'
p1979
S'GWQTAe64m-0_160_166'
p1980
sS'vid567'
p1981
S'GWQTAe64m-0_91_94'
p1982
sS'vid564'
p1983
S'GPT4vUwlrXY_1_10'
p1984
sS'vid565'
p1985
S'GPyFZMJ5Dow_56_70'
p1986
sS'vid562'
p1987
S'GEXqMH8I3_w_63_68'
p1988
sS'vid563'
p1989
S'GMuijLIJH-U_1_10'
p1990
sS'vid560'
p1991
S'G6w6kO8UPyg_31_41'
p1992
sS'vid561'
p1993
S'GEXqMH8I3_w_14_18'
p1994
sS'vid786'
p1995
S'NoCgvH4xZHo_56_63'
p1996
sS'vid787'
p1997
S'NoCgvH4xZHo_68_74'
p1998
sS'vid784'
p1999
S'NjblUomxFQo_100_108'
p2000
sS'vid684'
p2001
S'JntMAcTlOF0_50_70'
p2002
sS'vid782'
p2003
S'NjCqtzZ3OtU_303_307'
p2004
sS'vid783'
p2005
S'NjCqtzZ3OtU_62_67'
p2006
sS'vid780'
p2007
S'Nd45qJn61Dw_0_10'
p2008
sS'vid781'
p2009
S'Ne87egvJnWo_0_3'
p2010
sS'vid683'
p2011
S'JnNe61UZsdM_78_88'
p2012
sS'vid788'
p2013
S'O06WXS_XZN0_0_6'
p2014
sS'vid682'
p2015
S'JnNe61UZsdM_42_51'
p2016
sS'vid1829'
p2017
S'v-9Gx0gJmfo_26_32'
p2018
sS'vid1828'
p2019
S'uy0HNWto0UY_18_25'
p2020
sS'vid1295'
p2021
S'ejgwQqCHN1E_7_12'
p2022
sS'vid1823'
p2023
S'uppFvcVwqqY_5_15'
p2024
sS'vid1822'
p2025
S'unhiT2D6WvE_0_20'
p2026
sS'vid1821'
p2027
S'umjc1CkO4JA_290_305'
p2028
sS'vid1820'
p2029
S'ulPvRmNfXK4_96_100'
p2030
sS'vid1827'
p2031
S'uxEhH6MPH28_69_85'
p2032
sS'vid1826'
p2033
S'urXDqw3S34I_12_17'
p2034
sS'vid1825'
p2035
S'urNX3e1Wbc8_30_38'
p2036
sS'vid1824'
p2037
S'uqVCk2oDpSE_194_200'
p2038
sS'vid308'
p2039
S'71soiLO6I9U_15_24'
p2040
sS'vid309'
p2041
S'73vUksucPz8_12_20'
p2042
sS'vid302'
p2043
S'6t0BpjwYKco_53_59'
p2044
sS'vid303'
p2045
S'6t0BpjwYKco_59_69'
p2046
sS'vid300'
p2047
S'6t0BpjwYKco_261_284'
p2048
sS'vid301'
p2049
S'6t0BpjwYKco_46_53'
p2050
sS'vid306'
p2051
S'6vC6AT27RUc_29_46'
p2052
sS'vid307'
p2053
S'6vSKIUGGLvY_81_87'
p2054
sS'vid304'
p2055
S'6t0BpjwYKco_71_76'
p2056
sS'vid305'
p2057
S'6t0BpjwYKco_80_84'
p2058
sS'vid44'
p2059
S'-wa0umYJVGg_271_276'
p2060
sS'vid45'
p2061
S'-wa0umYJVGg_286_290'
p2062
sS'vid46'
p2063
S'-zOrV-5vh1A_69_76'
p2064
sS'vid47'
p2065
S'00jrXRMlZOY_0_10'
p2066
sS'vid40'
p2067
S'-wa0umYJVGg_117_123'
p2068
sS'vid41'
p2069
S'-wa0umYJVGg_139_157'
p2070
sS'vid42'
p2071
S'-wa0umYJVGg_168_176'
p2072
sS'vid43'
p2073
S'-wa0umYJVGg_23_41'
p2074
sS'vid48'
p2075
S'02Z-kuB3IaM_2_13'
p2076
sS'vid49'
p2077
S'04Gt01vatkk_248_265'
p2078
sS'vid416'
p2079
S'AQhiE_NL6yY_91_101'
p2080
sS'vid417'
p2081
S'AX38yo7Wuws_81_91'
p2082
sS'vid414'
p2083
S'AJJ-iQkbRNE_97_109'
p2084
sS'vid415'
p2085
S'AKVBK-0veE8_5_12'
p2086
sS'vid412'
p2087
S'AEKPjVHSVZc_0_12'
p2088
sS'vid413'
p2089
S'AGRFy5hDQiY_31_38'
p2090
sS'vid410'
p2091
S'ACOmKiJDkA4_75_81'
p2092
sS'vid411'
p2093
S'AE9UaQwum8c_0_10'
p2094
sS'vid948'
p2095
S'UXs3eq68ZjE_235_240'
p2096
sS'vid949'
p2097
S'UXs3eq68ZjE_246_250'
p2098
sS'vid418'
p2099
S'AXL1oMdCFUM_45_59'
p2100
sS'vid419'
p2101
S'A_nCfAbXjoM_8_56'
p2102
sS'vid203'
p2103
S'4R-tumAGrtU_12_22'
p2104
sS'vid202'
p2105
S'4QdX5Q3qQsQ_6_14'
p2106
sS'vid201'
p2107
S'4QdX5Q3qQsQ_38_44'
p2108
sS'vid1961'
p2109
S'zkTn5Ef1Oig_71_75'
p2110
sS'vid200'
p2111
S'4QYPZM01xFE_14_26'
p2112
sS'vid207'
p2113
S'4_WZN7uW0NY_140_145'
p2114
sS'vid206'
p2115
S'4VLrxtf7Z_8_0_7'
p2116
sS'vid205'
p2117
S'4UOVKok7j1U_1_8'
p2118
sS'vid204'
p2119
S'4Tn5S48sCwg_110_118'
p2120
sS'vid626'
p2121
S'IhwPQL9dFYc_143_147'
p2122
sS'vid610'
p2123
S'HypgcCT1r68_38_46'
p2124
sS'vid1196'
p2125
S'bL_Kijz9IN4_0_15'
p2126
sS'vid1195'
p2127
S'bK-i_FAcpoY_86_92'
p2128
sS'vid1194'
p2129
S'bJJndejsUWc_88_98'
p2130
sS'vid614'
p2131
S'IBgsLmDcL78_80_84'
p2132
sS'vid1192'
p2133
S'bAYIIlX-WWw_5_15'
p2134
sS'vid616'
p2135
S'IEQyCcageGg_99_126'
p2136
sS'vid1190'
p2137
S'b71bI0rH1g8_75_90'
p2138
sS'vid1588'
p2139
S'nMBSDpB3WB8_5_14'
p2140
sS'vid1589'
p2141
S'nPj6EcVGoUY_7_15'
p2142
sS'vid1580'
p2143
S'n6U-TGahwvs_100_110'
p2144
sS'vid1581'
p2145
S'nBFhvrAOFqY_23_29'
p2146
sS'vid1582'
p2147
S'nBFhvrAOFqY_89_103'
p2148
sS'vid1583'
p2149
S'nBJV56WUDng_38_47'
p2150
sS'vid1584'
p2151
S'nCtZFOYAlvQ_44_49'
p2152
sS'vid1585'
p2153
S'nHZsE7T7hwI_13_23'
p2154
sS'vid1586'
p2155
S'nLvX-erABqY_67_72'
p2156
sS'vid1587'
p2157
S'nLz0QuerH1c_8_15'
p2158
sS'vid1458'
p2159
S'jvxUeT1Nlb8_100_115'
p2160
sS'vid1459'
p2161
S'jxdubZzQrio_33_46'
p2162
sS'vid1452'
p2163
S'jjl2ZMdFCsw_130_142'
p2164
sS'vid1453'
p2165
S'jjl2ZMdFCsw_17_35'
p2166
sS'vid1450'
p2167
S'jdAbpLooDgM_10_15'
p2168
sS'vid1451'
p2169
S'jfrrO5K_vKM_55_65'
p2170
sS'vid1456'
p2171
S'jsEUFYhiqxU_121_128'
p2172
sS'vid1457'
p2173
S'jv-eV6jR3Qw_7_12'
p2174
sS'vid1454'
p2175
S'jlahRlo4jlU_30_36'
p2176
sS'vid1455'
p2177
S'jmoT2we_rqo_0_5'
p2178
sS'vid171'
p2179
S'3FnUTQMJVXI_31_36'
p2180
sS'vid170'
p2181
S'39Ce7I6nXIw_96_104'
p2182
sS'vid173'
p2183
S'3OPQqH3YlHA_50_54'
p2184
sS'vid172'
p2185
S'3I9tSDU-OSk_17_22'
p2186
sS'vid175'
p2187
S'3_51FhosiVY_93_101'
p2188
sS'vid174'
p2189
S'3SKyc0aKx70_46_52'
p2190
sS'vid177'
p2191
S'3doK4FQM5-k_46_57'
p2192
sS'vid176'
p2193
S'3chNlP5TeO8_0_10'
p2194
sS'vid179'
p2195
S'3ftaoFnhTyY_140_150'
p2196
sS'vid178'
p2197
S'3eqFFRSXwGE_84_96'
p2198
sS'vid689'
p2199
S'Jxw16bqzVqE_18_28'
p2200
sS'vid1056'
p2201
S'X6uJyuD_Zso_3_17'
p2202
sS'vid1057'
p2203
S'X7sQq-Iu1gQ_12_22'
p2204
sS'vid1054'
p2205
S'X4yzrIc072w_4_20'
p2206
sS'vid1055'
p2207
S'X56XkGFe7OY_47_61'
p2208
sS'vid1052'
p2209
S'WyIqGyj21Dk_0_10'
p2210
sS'vid1053'
p2211
S'X0UJaprpxrk_18_26'
p2212
sS'vid1050'
p2213
S'WrsS6X-FB-I_30_47'
p2214
sS'vid1051'
p2215
S'Wv3u2q3oGeU_35_45'
p2216
sS'vid1058'
p2217
S'X98fLZHIzWQ_15_20'
p2218
sS'vid1059'
p2219
S'XEOH3t5AYY0_22_29'
p2220
sS'vid707'
p2221
S'Kms3EXosNS0_8_17'
p2222
sS'vid1128'
p2223
S'_9iG5Ge01PM_3_11'
p2224
sS'vid1129'
p2225
S'_JVxurtGIhI_32_42'
p2226
sS'vid1126'
p2227
S'_6OTzzK7t9Y_73_78'
p2228
sS'vid1127'
p2229
S'_7nP9z6T9m8_11_17'
p2230
sS'vid1124'
p2231
S'_1vy2HIN60A_32_40'
p2232
sS'vid1125'
p2233
S'_6OTzzK7t9Y_158_170'
p2234
sS'vid1122'
p2235
S'ZxqkAGNyo8A_12_22'
p2236
sS'vid1123'
p2237
S'_0nX-El-ySo_83_93'
p2238
sS'vid1120'
p2239
S'ZsrPKtx0qyg_7_15'
p2240
sS'vid1121'
p2241
S'ZvJvNcukZ4w_0_10'
p2242
sS'vid1908'
p2243
S'y8SDRc4IOjs_94_99'
p2244
sS'vid1909'
p2245
S'yAD_TS5L2d4_4_11'
p2246
sS'vid1904'
p2247
S'xxHx6s_DbUo_57_61'
p2248
sS'vid1905'
p2249
S'xxHx6s_DbUo_82_86'
p2250
sS'vid1906'
p2251
S'xxHx6s_DbUo_98_101'
p2252
sS'vid1907'
p2253
S'xy9LLUUZ6ic_50_60'
p2254
sS'vid1900'
p2255
S'xxHx6s_DbUo_32_36'
p2256
sS'vid1901'
p2257
S'xxHx6s_DbUo_36_40'
p2258
sS'vid1902'
p2259
S'xxHx6s_DbUo_41_44'
p2260
sS'vid1903'
p2261
S'xxHx6s_DbUo_49_56'
p2262
sS'vid779'
p2263
S'NbOlG7THecM_25_34'
p2264
sS'vid778'
p2265
S'NaX51emUDn4_0_20'
p2266
sS'vid773'
p2267
S'NUYu9c9XsgY_7_21'
p2268
sS'vid772'
p2269
S'NNYLo1OeZ-Q_48_54'
p2270
sS'vid771'
p2271
S'NMlKMfiHSho_1_15'
p2272
sS'vid770'
p2273
S'NKtfKR4GNjU_0_20'
p2274
sS'vid777'
p2275
S'NZWiKMZS_k8_39_48'
p2276
sS'vid776'
p2277
S'NVGGgncVq-4_12_20'
p2278
sS'vid775'
p2279
S'NVGGgncVq-4_111_117'
p2280
sS'vid774'
p2281
S'NV6pq1W-I4g_7_16'
p2282
sS'vid1632'
p2283
S'o_mWZWcm2r4_10_15'
p2284
sS'vid1633'
p2285
S'o_mWZWcm2r4_47_54'
p2286
sS'vid1630'
p2287
S'oRBgVOiZVsc_16_22'
p2288
sS'vid1631'
p2289
S'oSnYUfCGiCA_7_17'
p2290
sS'vid579'
p2291
S'GopEjCCu2jo_2_9'
p2292
sS'vid578'
p2293
S'Goj131_GxYs_2_7'
p2294
sS'vid1634'
p2295
S'oeaVXK2GAyc_4_21'
p2296
sS'vid1635'
p2297
S'ogcqFaNbah4_475_487'
p2298
sS'vid575'
p2299
S'Gn4Iv5ARIXc_83_93'
p2300
sS'vid574'
p2301
S'Gn4Iv5ARIXc_37_40'
p2302
sS'vid577'
p2303
S'GnwKcpfr_ng_47_57'
p2304
sS'vid576'
p2305
S'GnwKcpfr_ng_10_20'
p2306
sS'vid571'
p2307
S'Gh4Beb8StFM_29_50'
p2308
sS'vid570'
p2309
S'GcfWD62sbcs_13_33'
p2310
sS'vid573'
p2311
S'Gm1WnWVXYzQ_0_9'
p2312
sS'vid572'
p2313
S'GlW6n43pUQA_0_12'
p2314
sS'vid795'
p2315
S'OCcy9TDRGKo_41_51'
p2316
sS'vid794'
p2317
S'OCcy9TDRGKo_118_127'
p2318
sS'vid797'
p2319
S'OIg10Bl7urs_0_10'
p2320
sS'vid796'
p2321
S'OE6H_M52Sng_89_97'
p2322
sS'vid791'
p2323
S'O9yLRzpPp44_167_190'
p2324
sS'vid790'
p2325
S'O9cOSO9L8Zs_1_16'
p2326
sS'vid793'
p2327
S'OBLIjdMIIt8_54_61'
p2328
sS'vid792'
p2329
S'O9yLRzpPp44_36_55'
p2330
sS'vid799'
p2331
S'OKBLPpAPp9c_2_17'
p2332
sS'vid798'
p2333
S'OIjsSu_I4So_6_10'
p2334
sS'vid1838'
p2335
S'vRC9sBNt9vs_10_16'
p2336
sS'vid1839'
p2337
S'vZa13vJugGU_0_30'
p2338
sS'vid1830'
p2339
S'v-9Gx0gJmfo_91_99'
p2340
sS'vid1831'
p2341
S'v4_AzQSnmY4_40_55'
p2342
sS'vid1832'
p2343
S'v5CeGLEnVFE_0_8'
p2344
sS'vid1833'
p2345
S'v7NpKUVqjpI_23_40'
p2346
sS'vid1834'
p2347
S'v7iIZXtpIb8_5_15'
p2348
sS'vid1835'
p2349
S'vDhEpqfhVI0_0_8'
p2350
sS'vid1836'
p2351
S'vE1gvaM3iAs_39_46'
p2352
sS'vid1837'
p2353
S'vMoOpQQy6sI_22_55'
p2354
sS'vid319'
p2355
S'7NNg0_n-bS8_21_30'
p2356
sS'vid318'
p2357
S'7M-jsjLB20Y_11_30'
p2358
sS'vid311'
p2359
S'778mkceE0UQ_40_46'
p2360
sS'vid310'
p2361
S'74tRCYS_534_49_57'
p2362
sS'vid313'
p2363
S'77iDIp40m9E_126_131'
p2364
sS'vid312'
p2365
S'77iDIp40m9E_119_123'
p2366
sS'vid315'
p2367
S'77iDIp40m9E_3_9'
p2368
sS'vid314'
p2369
S'77iDIp40m9E_159_181'
p2370
sS'vid317'
p2371
S'7HcYJKMxpcg_20_28'
p2372
sS'vid316'
p2373
S'7EOqi_6rnkg_36_44'
p2374
sS'vid31'
p2375
S'-rkErLY0rRc_26_35'
p2376
sS'vid30'
p2377
S'-pUwIypksfE_13_23'
p2378
sS'vid33'
p2379
S'-rvjK0lE3z4_33_43'
p2380
sS'vid32'
p2381
S'-rkErLY0rRc_63_67'
p2382
sS'vid35'
p2383
S'-t-ZWaJeH-o_0_15'
p2384
sS'vid34'
p2385
S'-s4-6QTT7HE_235_241'
p2386
sS'vid37'
p2387
S'-vKO3uSG6Do_3_14'
p2388
sS'vid36'
p2389
S'-uT_1VDvXok_8_15'
p2390
sS'vid39'
p2391
S'-wa0umYJVGg_100_115'
p2392
sS'vid38'
p2393
S'-vg3vR86fu0_1_6'
p2394
sS'vid1415'
p2395
S'ibSwITK4jjQ_14_24'
p2396
sS'vid953'
p2397
S'UXs3eq68ZjE_313_318'
p2398
sS'vid952'
p2399
S'UXs3eq68ZjE_280_285'
p2400
sS'vid407'
p2401
S'ACOmKiJDkA4_49_54'
p2402
sS'vid950'
p2403
S'UXs3eq68ZjE_250_255'
p2404
sS'vid957'
p2405
S'UXs3eq68ZjE_49_54'
p2406
sS'vid956'
p2407
S'UXs3eq68ZjE_498_504'
p2408
sS'vid955'
p2409
S'UXs3eq68ZjE_382_387'
p2410
sS'vid954'
p2411
S'UXs3eq68ZjE_320_325'
p2412
sS'vid959'
p2413
S'UbmZAe5u5FI_101_110'
p2414
sS'vid958'
p2415
S'UXs3eq68ZjE_508_513'
p2416
sS'vid409'
p2417
S'ACOmKiJDkA4_67_74'
p2418
sS'vid408'
p2419
S'ACOmKiJDkA4_57_65'
p2420
sS'vid1419'
p2421
S'inLBPVG8oEU_18_24'
p2422
sS'vid638'
p2423
S'IpHJffM3G1c_412_418'
p2424
sS'vid639'
p2425
S'IpHJffM3G1c_439_446'
p2426
sS'vid1557'
p2427
S'm4D72WXFd8s_557_564'
p2428
sS'vid1556'
p2429
S'm1c04pCYGxA_57_64'
p2430
sS'vid1555'
p2431
S'm1NR0uNNs5Y_88_94'
p2432
sS'vid1554'
p2433
S'm1NR0uNNs5Y_73_78'
p2434
sS'vid1553'
p2435
S'm1NR0uNNs5Y_57_64'
p2436
sS'vid1552'
p2437
S'm1NR0uNNs5Y_273_280'
p2438
sS'vid1551'
p2439
S'm1NR0uNNs5Y_224_230'
p2440
sS'vid1688'
p2441
S'q8t7iSGAKik_57_74'
p2442
sS'vid1550'
p2443
S'm1NR0uNNs5Y_192_198'
p2444
sS'vid1953'
p2445
S'zYcY4mjLpxU_104_118'
p2446
sS'vid1952'
p2447
S'zWVQImPY2Cc_27_44'
p2448
sS'vid1951'
p2449
S'zTn-nNj5Bng_8_19'
p2450
sS'vid1950'
p2451
S'zTn-nNj5Bng_61_77'
p2452
sS'vid1957'
p2453
S'zbAk0gX7kas_16_24'
p2454
sS'vid1956'
p2455
S'za-9mBZyNfQ_330_336'
p2456
sS'vid1955'
p2457
S'z_qf7tOnHVg_81_89'
p2458
sS'vid1954'
p2459
S'zYcY4mjLpxU_45_55'
p2460
sS'vid1892'
p2461
S'xxHx6s_DbUo_121_128'
p2462
sS'vid1893'
p2463
S'xxHx6s_DbUo_158_161'
p2464
sS'vid1890'
p2465
S'xtbsD3PUua4_174_185'
p2466
sS'vid1891'
p2467
S'xtbsD3PUua4_84_94'
p2468
sS'vid1896'
p2469
S'xxHx6s_DbUo_182_186'
p2470
sS'vid1897'
p2471
S'xxHx6s_DbUo_202_207'
p2472
sS'vid1894'
p2473
S'xxHx6s_DbUo_162_165'
p2474
sS'vid1895'
p2475
S'xxHx6s_DbUo_173_177'
p2476
sS'vid1481'
p2477
S'kWLNZzuo3do_154_165'
p2478
sS'vid1480'
p2479
S'kWLNZzuo3do_152_164'
p2480
sS'vid1483'
p2481
S'kWLNZzuo3do_17_23'
p2482
sS'vid1482'
p2483
S'kWLNZzuo3do_167_181'
p2484
sS'vid1485'
p2485
S'kWLNZzuo3do_206_213'
p2486
sS'vid1484'
p2487
S'kWLNZzuo3do_192_196'
p2488
sS'vid1339'
p2489
S'g8LUhxR-6Wg_0_8'
p2490
sS'vid1338'
p2491
S'g36ho6UrBz0_5_20'
p2492
sS'vid1337'
p2493
S'g2IYQq7IkXc_23_32'
p2494
sS'vid1336'
p2495
S'g2IYQq7IkXc_124_132'
p2496
sS'vid1335'
p2497
S'g1Gldu1KS44_8_14'
p2498
sS'vid1334'
p2499
S'fw8qvK67jYY_50_97'
p2500
sS'vid1333'
p2501
S'fvBs0xpEZhQ_10_30'
p2502
sS'vid1332'
p2503
S'fr9H1WLcF1A_326_336'
p2504
sS'vid1331'
p2505
S'fr9H1WLcF1A_256_261'
p2506
sS'vid1330'
p2507
S'fr9H1WLcF1A_141_148'
p2508
sS'vid148'
p2509
S'2MCpA01Sn_c_75_82'
p2510
sS'vid149'
p2511
S'2Nn2CAeaI5k_72_77'
p2512
sS'vid144'
p2513
S'2I20ZTFHheg_96_104'
p2514
sS'vid145'
p2515
S'2KrdBUFeFtY_22_27'
p2516
sS'vid146'
p2517
S'2L4oELbX8Ms_1_12'
p2518
sS'vid147'
p2519
S'2LgrGHWSy6k_122_135'
p2520
sS'vid140'
p2521
S'2F9jX7u5nOg_83_97'
p2522
sS'vid141'
p2523
S'2FLsMPsywRc_45_63'
p2524
sS'vid142'
p2525
S'2G9fkvBzzQE_10_20'
p2526
sS'vid143'
p2527
S'2HpZvL-_fiY_40_44'
p2528
sS'vid1023'
p2529
S'WTf5EgVY5uU_108_116'
p2530
sS'vid1022'
p2531
S'WTf5EgVY5uU_104_108'
p2532
sS'vid1021'
p2533
S'WTf5EgVY5uU_100_104'
p2534
sS'vid1020'
p2535
S'WPG-BIWOrG4_755_761'
p2536
sS'vid1027'
p2537
S'WTf5EgVY5uU_15_19'
p2538
sS'vid1026'
p2539
S'WTf5EgVY5uU_130_135'
p2540
sS'vid1025'
p2541
S'WTf5EgVY5uU_124_128'
p2542
sS'vid1024'
p2543
S'WTf5EgVY5uU_121_135'
p2544
sS'vid1029'
p2545
S'WTf5EgVY5uU_18_23'
p2546
sS'vid1028'
p2547
S'WTf5EgVY5uU_16_24'
p2548
sS'vid641'
p2549
S'ItFqogTmAvQ_240_246'
p2550
sS'vid1159'
p2551
S'a1i6T160REQ_5_18'
p2552
sS'vid1158'
p2553
S'a1Y73sPHKxw_0_5'
p2554
sS'vid1153'
p2555
S'_txL575S_OA_13_23'
p2556
sS'vid1152'
p2557
S'_sJ_09Mf1HY_49_72'
p2558
sS'vid1151'
p2559
S'_pj2Nutu5v8_1_8'
p2560
sS'vid1150'
p2561
S'_pBeOAMjGm8_1_18'
p2562
sS'vid1157'
p2563
S'a0g7wtBkS98_34_42'
p2564
sS'vid1156'
p2565
S'a-cek0mvXxE_15_25'
p2566
sS'vid1155'
p2567
S'_yUiusXxfWI_150_165'
p2568
sS'vid1154'
p2569
S'_xf24TYgbuY_14_20'
p2570
sS'vid1939'
p2571
S'zCf8NWJ8kzA_47_52'
p2572
sS'vid1938'
p2573
S'zBrC1GmA0Qg_26_33'
p2574
sS'vid645'
p2575
S'ItFqogTmAvQ_48_52'
p2576
sS'vid1931'
p2577
S'yyxtyCaEVqk_329_360'
p2578
sS'vid1930'
p2579
S'yyxtyCaEVqk_321_328'
p2580
sS'vid1933'
p2581
S'z0zb--BOhDY_16_22'
p2582
sS'vid644'
p2583
S'ItFqogTmAvQ_389_395'
p2584
sS'vid1935'
p2585
S'z2kUc8wp9l8_40_46'
p2586
sS'vid1934'
p2587
S'z1PEyzk4ADU_8_18'
p2588
sS'vid1937'
p2589
S'z9qbQX4J_2g_0_14'
p2590
sS'vid1936'
p2591
S'z8dcUzdi2bw_3_16'
p2592
sS'vid1702'
p2593
S'qeKX-N1nKiM_133_142'
p2594
sS'vid1703'
p2595
S'qeKX-N1nKiM_37_43'
p2596
sS'vid1700'
p2597
S'qeKX-N1nKiM_106_115'
p2598
sS'vid697'
p2599
S'KIEWo_xJ5nU_0_7'
p2600
sS'vid549'
p2601
S'FXWdmIHXS_U_3_10'
p2602
sS'vid1701'
p2603
S'qeKX-N1nKiM_123_130'
p2604
sS'vid540'
p2605
S'FAD8CbQuvco_35_45'
p2606
sS'vid541'
p2607
S'FCjpuJaUec0_19_26'
p2608
sS'vid542'
p2609
S'FGjtmhI-Rmk_30_37'
p2610
sS'vid543'
p2611
S'FH8vgAp4VDU_10_14'
p2612
sS'vid544'
p2613
S'FHwC2THZJfA_0_10'
p2614
sS'vid545'
p2615
S'FOOM-wA2rOY_77_86'
p2616
sS'vid546'
p2617
S'FTh5zPk34bQ_16_30'
p2618
sS'vid547'
p2619
S'FWzsXeXCwuc_106_110'
p2620
sS'vid1704'
p2621
S'qeKX-N1nKiM_52_59'
p2622
sS'vid1705'
p2623
S'qeKX-N1nKiM_68_72'
p2624
sS'vid1805'
p2625
S'u9prcUCHlqM_73_80'
p2626
sS'vid1804'
p2627
S'u9prcUCHlqM_503_511'
p2628
sS'vid1807'
p2629
S'uB9zRlV47qA_17_23'
p2630
sS'vid1806'
p2631
S'uAaWVeaYLdQ_1_12'
p2632
sS'vid1801'
p2633
S'u4kMN1jamdM_10_20'
p2634
sS'vid136'
p2635
S'25NmudB2fqg_0_7'
p2636
sS'vid1803'
p2637
S'u9prcUCHlqM_235_241'
p2638
sS'vid1802'
p2639
S'u9E9HpuJQ7U_29_43'
p2640
sS'vid1809'
p2641
S'uH8ObB_dyOk_159_166'
p2642
sS'vid1808'
p2643
S'uGDuIyfJXXg_23_33'
p2644
sS'vid892'
p2645
S'RX6NSOuCCAE_13_27'
p2646
sS'vid893'
p2647
S'RZL9irxnhZ0_34_40'
p2648
sS'vid890'
p2649
S'RSx5G0_xH48_12_17'
p2650
sS'vid891'
p2651
S'RWWvWFeE6_Q_2_26'
p2652
sS'vid896'
p2653
S'RiglOfJon8I_3_18'
p2654
sS'vid897'
p2655
S'RjpbFlOHFps_8_25'
p2656
sS'vid894'
p2657
S'Rf0TUCA3XNs_3_16'
p2658
sS'vid323'
p2659
S'7bcV-TL9mho_0_7'
p2660
sS'vid898'
p2661
S'Rm-RnxN4oHA_215_225'
p2662
sS'vid899'
p2663
S'Rq_VfjGH7kg_104_110'
p2664
sS'vid328'
p2665
S'7xNG7qGY9rw_14_29'
p2666
sS'vid329'
p2667
S'80D0ylOqPJ8_0_5'
p2668
sS'vid22'
p2669
S'-_hbPLsZvvo_323_328'
p2670
sS'vid23'
p2671
S'-_hbPLsZvvo_43_55'
p2672
sS'vid20'
p2673
S'-_hbPLsZvvo_269_275'
p2674
sS'vid21'
p2675
S'-_hbPLsZvvo_288_305'
p2676
sS'vid26'
p2677
S'-bjOB4zS0uE_100_105'
p2678
sS'vid27'
p2679
S'-dm-ds5rRaM_44_52'
p2680
sS'vid24'
p2681
S'-_hbPLsZvvo_49_55'
p2682
sS'vid25'
p2683
S'-_hbPLsZvvo_5_8'
p2684
sS'vid28'
p2685
S'-joBOHlg5J0_72_80'
p2686
sS'vid29'
p2687
S'-mAoVOhKy0c_4_9'
p2688
sS'vid130'
p2689
S'1qV4wfjTYIo_151_164'
p2690
sS'vid430'
p2691
S'Ayh26v6Nies_17_22'
p2692
sS'vid431'
p2693
S'AysIdzGF-7M_6_14'
p2694
sS'vid432'
p2695
S'AzMrltkXGJk_0_10'
p2696
sS'vid433'
p2697
S'B-Lsf7ZKf5c_10_25'
p2698
sS'vid434'
p2699
S'B4foOe9kUgY_0_8'
p2700
sS'vid435'
p2701
S'B7mP4zoDMwM_0_17'
p2702
sS'vid436'
p2703
S'BAf3LXFUaGs_28_38'
p2704
sS'vid437'
p2705
S'BApIQn69EVE_10_16'
p2706
sS'vid438'
p2707
S'BE_uxYK9uz0_150_168'
p2708
sS'vid439'
p2709
S'BE_uxYK9uz0_49_56'
p2710
sS'vid180'
p2711
S'3lBHYoI5V8s_30_45'
p2712
sS'vid1174'
p2713
S'aeA-HN7BMdo_16_33'
p2714
sS'vid1177'
p2715
S'akXjIEoecNs_2_12'
p2716
sS'vid1176'
p2717
S'aeA-HN7BMdo_52_58'
p2718
sS'vid1171'
p2719
S'aN0WsBcja_E_0_15'
p2720
sS'vid1170'
p2721
S'aM-RcQj0a7I_37_55'
p2722
sS'vid1173'
p2723
S'aRo8x3xXeEA_3_8'
p2724
sS'vid187'
p2725
S'3zrVqwV29V8_69_76'
p2726
sS'vid636'
p2727
S'IiTzJQE67FA_36_46'
p2728
sS'vid637'
p2729
S'IiTzJQE67FA_74_86'
p2730
sS'vid632'
p2731
S'IhwPQL9dFYc_78_88'
p2732
sS'vid633'
p2733
S'IhzXQ-gc9IQ_125_129'
p2734
sS'vid1328'
p2735
S'fnpp8v9NbmY_181_188'
p2736
sS'vid1329'
p2737
S'fqly5kyO2MI_10_20'
p2738
sS'vid1498'
p2739
S'kWLNZzuo3do_76_80'
p2740
sS'vid1499'
p2741
S'kWLNZzuo3do_77_83'
p2742
sS'vid1324'
p2743
S'ficwZQYmRLE_5_20'
p2744
sS'vid1325'
p2745
S'fjDvKHkmxs0_119_126'
p2746
sS'vid1326'
p2747
S'fjDvKHkmxs0_72_87'
p2748
sS'vid1327'
p2749
S'fkONJEgTNJY_25_35'
p2750
sS'vid1320'
p2751
S'fcvW1vr8hAs_104_108'
p2752
sS'vid1321'
p2753
S'fcvW1vr8hAs_96_102'
p2754
sS'vid1322'
p2755
S'fd7Ky1lEPT8_40_50'
p2756
sS'vid1323'
p2757
S'fgWFxFg7-GU_10_26'
p2758
sS'vid159'
p2759
S'2YhDTpzxd3c_45_49'
p2760
sS'vid158'
p2761
S'2YhDTpzxd3c_240_245'
p2762
sS'vid153'
p2763
S'2YhDTpzxd3c_149_154'
p2764
sS'vid152'
p2765
S'2YhDTpzxd3c_115_120'
p2766
sS'vid151'
p2767
S'2YhDTpzxd3c_102_105'
p2768
sS'vid150'
p2769
S'2R_OAYQIkXM_14_22'
p2770
sS'vid157'
p2771
S'2YhDTpzxd3c_22_27'
p2772
sS'vid156'
p2773
S'2YhDTpzxd3c_223_232'
p2774
sS'vid155'
p2775
S'2YhDTpzxd3c_174_180'
p2776
sS'vid154'
p2777
S'2YhDTpzxd3c_166_170'
p2778
sS'vid1030'
p2779
S'WTf5EgVY5uU_218_236'
p2780
sS'vid1031'
p2781
S'WTf5EgVY5uU_32_52'
p2782
sS'vid1032'
p2783
S'WTf5EgVY5uU_33_39'
p2784
sS'vid1033'
p2785
S'WTf5EgVY5uU_54_58'
p2786
sS'vid1034'
p2787
S'WTf5EgVY5uU_58_76'
p2788
sS'vid1035'
p2789
S'WTf5EgVY5uU_66_75'
p2790
sS'vid1036'
p2791
S'WTf5EgVY5uU_76_83'
p2792
sS'vid1037'
p2793
S'WTf5EgVY5uU_94_98'
p2794
sS'vid1038'
p2795
S'WTf5EgVY5uU_98_104'
p2796
sS'vid1039'
p2797
S'WTx-K045yQM_85_98'
p2798
sS'vid1148'
p2799
S'_ZwwKOzpt2I_69_76'
p2800
sS'vid1149'
p2801
S'_o1UXSxTjfo_68_80'
p2802
sS'vid1924'
p2803
S'ymC2bNi6-Is_9_19'
p2804
sS'vid1925'
p2805
S'ysTmUTQ5wZE_17_45'
p2806
sS'vid1922'
p2807
S'yfMTsYcLt10_0_7'
p2808
sS'vid1923'
p2809
S'yg4aNiO1JnI_111_114'
p2810
sS'vid1920'
p2811
S'ybVb3t560oY_0_9'
p2812
sS'vid1921'
p2813
S'yd8jh9QYfEs_4_10'
p2814
sS'vid1140'
p2815
S'_QJbjKkfdcs_52_57'
p2816
sS'vid1141'
p2817
S'_SNE2MYAotU_41_49'
p2818
sS'vid1142'
p2819
S'_UqnTFs1BLc_23_27'
p2820
sS'vid1143'
p2821
S'_WRC7HXBJpU_360_370'
p2822
sS'vid1144'
p2823
S'_WRC7HXBJpU_386_391'
p2824
sS'vid1145'
p2825
S'_WRC7HXBJpU_395_401'
p2826
sS'vid1146'
p2827
S'_WRC7HXBJpU_414_425'
p2828
sS'vid1147'
p2829
S'_WRC7HXBJpU_451_464'
p2830
sS'vid557'
p2831
S'FwCmcZpkk-k_22_32'
p2832
sS'vid556'
p2833
S'FvfjDQj5sOY_1_10'
p2834
sS'vid555'
p2835
S'FoL7aWvpvNs_199_204'
p2836
sS'vid554'
p2837
S'Ffv7fhL1EDY_177_184'
p2838
sS'vid553'
p2839
S'FeTaKOPVaJg_60_70'
p2840
sS'vid552'
p2841
S'FeTaKOPVaJg_15_25'
p2842
sS'vid551'
p2843
S'Fe4tO5vW9_E_64_70'
p2844
sS'vid550'
p2845
S'FavUpD_IjVY_22_26'
p2846
sS'vid559'
p2847
S'G-M78KIy19E_315_330'
p2848
sS'vid558'
p2849
S'FxIuFwMhOu8_18_26'
p2850
sS'vid1962'
p2851
S'zlS1_zBYluY_15_21'
p2852
sS'vid1963'
p2853
S'zpgW7m7_LZw_2_15'
p2854
sS'vid1812'
p2855
S'uO7Eysrs8_k_80_90'
p2856
sS'vid1813'
p2857
S'uVPnDJKt1M0_0_6'
p2858
sS'vid1810'
p2859
S'uJPupV4oLZ0_4_12'
p2860
sS'vid1811'
p2861
S'uO7Eysrs8_k_106_114'
p2862
sS'vid1816'
p2863
S'ub-aYLzCF_Q_1_10'
p2864
sS'vid1817'
p2865
S'ufFT2BWh3BQ_0_8'
p2866
sS'vid1814'
p2867
S'uZEGu-TA2cU_42_58'
p2868
sS'vid1815'
p2869
S'u_6tre9_99Q_13_25'
p2870
sS'vid1818'
p2871
S'uiLr9bdOL0M_23_30'
p2872
sS'vid1819'
p2873
S'ul9Xvjt83eI_111_120'
p2874
sS'vid881'
p2875
S'R1UrFBF_0iU_35_41'
p2876
sS'vid332'
p2877
S'88DOMJ11q2M_84_87'
p2878
sS'vid883'
p2879
S'R24RktgUi-s_5_15'
p2880
sS'vid330'
p2881
S'81fABEiwcIM_31_45'
p2882
sS'vid337'
p2883
S'8HB7ywgJuTg_131_142'
p2884
sS'vid336'
p2885
S'8D_oQnBPfNo_43_50'
p2886
sS'vid335'
p2887
S'8CzlhZtunNc_5_11'
p2888
sS'vid886'
p2889
S'R8FDJgVW3Vc_0_4'
p2890
sS'vid889'
p2891
S'RQYLGNbal2c_5_10'
p2892
sS'vid888'
p2893
S'RMznbCn5sQs_0_10'
p2894
sS'vid339'
p2895
S'8MVo7fje_oE_113_118'
p2896
sS'vid338'
p2897
S'8MVo7fje_oE_108_113'
p2898
sS'vid1960'
p2899
S'zkTn5Ef1Oig_70_75'
p2900
sS'vid1489'
p2901
S'kWLNZzuo3do_24_31'
p2902
sS'vid1488'
p2903
S'kWLNZzuo3do_228_232'
p2904
sS'vid19'
p2905
S'-_hbPLsZvvo_211_219'
p2906
sS'vid18'
p2907
S'-_hbPLsZvvo_19_26'
p2908
sS'vid17'
p2909
S'-_hbPLsZvvo_19_25'
p2910
sS'vid16'
p2911
S'-_hbPLsZvvo_18_25'
p2912
sS'vid15'
p2913
S'-_hbPLsZvvo_172_179'
p2914
sS'vid14'
p2915
S'-_aaMGK6GGw_57_61'
p2916
sS'vid13'
p2917
S'-YI0cxuNcq8_262_272'
p2918
sS'vid12'
p2919
S'-Ms9tsWmhyU_80_95'
p2920
sS'vid11'
p2921
S'-FugkxLmGO4_5_16'
p2922
sS'vid10'
p2923
S'-DRy7rBg0IQ_31_37'
p2924
sS'vid1966'
p2925
S'zulPFoY64wE_26_33'
p2926
sS'vid429'
p2927
S'ArEWo8pERFc_17_21'
p2928
sS'vid428'
p2929
S'Ar70p1_LcfM_2_20'
p2930
sS'vid427'
p2931
S'ApYvvQK7bBc_6_32'
p2932
sS'vid426'
p2933
S'AoNnzlGhI04_112_128'
p2934
sS'vid425'
p2935
S'AjZ-R3LFMzo_5_10'
p2936
sS'vid424'
p2937
S'AjZ-R3LFMzo_24_38'
p2938
sS'vid423'
p2939
S'AjZ-R3LFMzo_18_23'
p2940
sS'vid422'
p2941
S'Afmc6FeN-hM_20_24'
p2942
sS'vid421'
p2943
S'AdcgmBtE99c_108_114'
p2944
sS'vid420'
p2945
S'Aa7yf9XtcJM_45_50'
p2946
sS'vid1967'
p2947
S'zv2RIbUsnSw_159_162'
p2948
sS'vid823'
p2949
S'PCXHuseKwDc_68_76'
p2950
sS'vid1964'
p2951
S'zr9OeyfLPPY_4_9'
p2952
sS'vid822'
p2953
S'PCXHuseKwDc_17_20'
p2954
sS'vid821'
p2955
S'PBHZtoygOYg_450_465'
p2956
sS'vid820'
p2957
S'PAm82v0AMFc_5_10'
p2958
sS'vid827'
p2959
S'PHDmVhShE80_36_46'
p2960
sS'vid826'
p2961
S'PHDmVhShE80_20_29'
p2962
sS'vid1965'
p2963
S'zuYZ5kPatJE_78_116'
p2964
sS'vid825'
p2965
S'PECk9A-07Pw_1_9'
p2966
sS'vid824'
p2967
S'PD6eQY7yCfw_32_37'
p2968
sS'vid980'
p2969
S'V--abChiVVc_30_40'
p2970
sS'vid981'
p2971
S'V4q5dQmpxIE_20_30'
p2972
sS'vid982'
p2973
S'V6Fxclwdfxc_1_11'
p2974
sS'vid983'
p2975
S'V6Fxclwdfxc_56_66'
p2976
sS'vid456'
p2977
S'BtQEY2SL4g4_11_16'
p2978
sS'vid985'
p2979
S'VF1K_6ZSOAY_60_70'
p2980
sS'vid986'
p2981
S'VLBsAPZ2DDE_34_41'
p2982
sS'vid987'
p2983
S'VLBsAPZ2DDE_58_64'
p2984
sS'vid1434'
p2985
S'j7xz1nos-xc_10_20'
p2986
sS'vid1435'
p2987
S'jCplbayVbtw_10_20'
p2988
sS'vid1436'
p2989
S'jCplbayVbtw_28_38'
p2990
sS'vid1437'
p2991
S'jD4o_Lmy6bU_117_137'
p2992
sS'vid1430'
p2993
S'j2Dhf-xFUxU_20_29'
p2994
sS'vid1431'
p2995
S'j2sOMdilDWU_87_97'
p2996
sS'vid1432'
p2997
S'j4dMnAPZu70_11_18'
p2998
sS'vid1433'
p2999
S'j4dMnAPZu70_12_17'
p3000
sS'vid1319'
p3001
S'f_GnkweYzzI_35_41'
p3002
sS'vid1318'
p3003
S'f_CvW22Eauc_16_23'
p3004
sS'vid1311'
p3005
S'fJr2evLANsE_0_10'
p3006
sS'vid1310'
p3007
S'fIaLVw_Gc_w_99_109'
p3008
sS'vid1313'
p3009
S'fMFvOgb4k6E_35_43'
p3010
sS'vid1312'
p3011
S'fKqBnl8D1Qo_5_44'
p3012
sS'vid1315'
p3013
S'fVWUaH2mCt4_1_7'
p3014
sS'vid1314'
p3015
S'fMXfphSi6Yw_7_12'
p3016
sS'vid1317'
p3017
S'fY0lZTWlBAg_470_485'
p3018
sS'vid1316'
p3019
S'fX5G_JwPlLo_640_660'
p3020
sS'vid1799'
p3021
S'tzd3AYTZq0U_0_6'
p3022
sS'vid1798'
p3023
S'tqxRDVKtkSY_30_45'
p3024
sS'vid1795'
p3025
S'tn-Hoz4KbkE_89_93'
p3026
sS'vid1794'
p3027
S'tmAX2PnRCY0_284_292'
p3028
sS'vid1797'
p3029
S'toE0QYZzJKE_1_8'
p3030
sS'vid1796'
p3031
S'tn1d5DmdMqY_15_28'
p3032
sS'vid1791'
p3033
S'tZmDWltBziM_42_47'
p3034
sS'vid1790'
p3035
S'tYh4iDFgmEE_50_54'
p3036
sS'vid1793'
p3037
S'tcxhOGyrCtI_15_21'
p3038
sS'vid1792'
p3039
S'tZmDWltBziM_70_80'
p3040
sS'vid1009'
p3041
S'W8l_ezoU8Lc_55_70'
p3042
sS'vid1008'
p3043
S'W8l_ezoU8Lc_156_162'
p3044
sS'vid1559'
p3045
S'mCrRHP4LFmo_24_40'
p3046
sS'vid1558'
p3047
S'm7x8uIdg2XU_67_73'
p3048
sS'vid1005'
p3049
S'W20Btaww6zc_134_139'
p3050
sS'vid1004'
p3051
S'W1052h2rzoA_91_98'
p3052
sS'vid1007'
p3053
S'W8_63NiTENw_23_30'
p3054
sS'vid1006'
p3055
S'W6_XuNhgtrM_2_5'
p3056
sS'vid1001'
p3057
S'VuCFgiWfVF4_0_6'
p3058
sS'vid1000'
p3059
S'Vn0Xv0fb1z4_18_30'
p3060
sS'vid1003'
p3061
S'VyBXcQ1v_cw_7_15'
p3062
sS'vid1002'
p3063
S'VxM96IYzw0Q_2_15'
p3064
sS'vid1777'
p3065
S'swJ0zhVJ8DU_15_21'
p3066
sS'vid1776'
p3067
S'sv5YlZspb30_10_20'
p3068
sS'vid1775'
p3069
S'suj4VNfZz5E_33_50'
p3070
sS'vid1774'
p3071
S'sm0OYD0NSbQ_51_59'
p3072
sS'vid1773'
p3073
S'shPymuahrsc_5_12'
p3074
sS'vid1772'
p3075
S'seTkGZlEU64_81_110'
p3076
sS'vid1771'
p3077
S'sb1dX5xAFvk_10_17'
p3078
sS'vid1770'
p3079
S's_ldnx8_etY_32_54'
p3080
sS'vid1959'
p3081
S'zhLcONtNkew_16_21'
p3082
sS'vid1958'
p3083
S'zfQOH4UGU_I_1_10'
p3084
sS'vid1779'
p3085
S't3VPeyYL-fI_35_39'
p3086
sS'vid1778'
p3087
S'swKrHEeOj9c_4_8'
p3088
sS'vid1496'
p3089
S'kWLNZzuo3do_48_53'
p3090
sS'vid522'
p3091
S'EPgQ9QwbsLE_16_23'
p3092
sS'vid523'
p3093
S'ETUJipdnfOM_0_5'
p3094
sS'vid520'
p3095
S'EKL6elkbFy0_16_30'
p3096
sS'vid521'
p3097
S'EPXsiQw9vvo_1_12'
p3098
sS'vid526'
p3099
S'Ea0thGZKPXA_25_35'
p3100
sS'vid527'
p3101
S'Eamd2wMKixs_48_72'
p3102
sS'vid524'
p3103
S'EVqc7e8JCco_5_15'
p3104
sS'vid525'
p3105
S'EXyp0Q7L1zE_30_38'
p3106
sS'vid528'
p3107
S'EdrZtaBUXIo_25_29'
p3108
sS'vid529'
p3109
S'EiylMb_mWk4_2_20'
p3110
sS'vid1175'
p3111
S'aeA-HN7BMdo_34_41'
p3112
sS'vid181'
p3113
S'3mbBbFH9fAg_21_29'
p3114
sS'vid182'
p3115
S'3n_Kqak2JdA_48_71'
p3116
sS'vid183'
p3117
S'3opDcpPxllE_50_66'
p3118
sS'vid184'
p3119
S'3qqEKTPxLNs_1_15'
p3120
sS'vid185'
p3121
S'3ytUOoa1SBE_12_23'
p3122
sS'vid186'
p3123
S'3zgEl-OLFKE_12_15'
p3124
sS'vid1172'
p3125
S'aQWCKcg0VRU_321_339'
p3126
sS'vid188'
p3127
S'4-1gpwkD7Hc_7_15'
p3128
sS'vid189'
p3129
S'45AGQSbodbU_5_15'
p3130
sS'vid634'
p3131
S'IiIiY6o-C9k_49_55'
p3132
sS'vid635'
p3133
S'IiIiY6o-C9k_59_64'
p3134
sS'vid1179'
p3135
S'ao-9B8IV9_E_175_187'
p3136
sS'vid1178'
p3137
S'ao-9B8IV9_E_108_119'
p3138
sS'vid630'
p3139
S'IhwPQL9dFYc_50_59'
p3140
sS'vid631'
p3141
S'IhwPQL9dFYc_61_75'
p3142
sS'vid856'
p3143
S'Q-soOsOLIGQ_0_22'
p3144
sS'vid857'
p3145
S'Q6HuQEIJqcA_9_16'
p3146
sS'vid854'
p3147
S'Puh1n8DTKw8_2_9'
p3148
sS'vid855'
p3149
S'Puv_4NtflqE_26_34'
p3150
sS'vid852'
p3151
S'PuQVs2Ch1LY_5_15'
p3152
sS'vid853'
p3153
S'PugziVUikEg_117_140'
p3154
sS'vid850'
p3155
S'Pr5LQq42l4M_12_17'
p3156
sS'vid851'
p3157
S'PslVHtXc7Tg_8_14'
p3158
sS'vid858'
p3159
S'Q7H9mI9dtMY_20_34'
p3160
sS'vid859'
p3161
S'QA_JTtM1hKA_5_15'
p3162
sS'vid548'
p3163
S'FWzsXeXCwuc_111_116'
p3164
sS'vid988'
p3165
S'VU4qLrk5axA_40_58'
p3166
sS'vid989'
p3167
S'VZ6H73nH7xs_27_33'
p3168
sS'vid458'
p3169
S'BtQtRGI0F2Q_15_20'
p3170
sS'vid459'
p3171
S'BvHnDAsMtUA_0_13'
p3172
sS'vid452'
p3173
S'BefkDBj5gSw_104_109'
p3174
sS'vid453'
p3175
S'BefkDBj5gSw_233_240'
p3176
sS'vid450'
p3177
S'BVjvRpmHg0w_47_51'
p3178
sS'vid451'
p3179
S'BVy9SQI5R68_0_7'
p3180
sS'vid984'
p3181
S'VF1K_6ZSOAY_23_28'
p3182
sS'vid457'
p3183
S'BtQEY2SL4g4_126_132'
p3184
sS'vid454'
p3185
S'BgoOihBb78w_38_40'
p3186
sS'vid455'
p3187
S'BnJUWwSx1kE_11_22'
p3188
sS'vid1800'
p3189
S'u4T76jsPin0_0_11'
p3190
sS'vid1593'
p3191
S'nTasT5h0LEg_40_43'
p3192
sS'vid1592'
p3193
S'nTasT5h0LEg_12_14'
p3194
sS'vid1591'
p3195
S'nTUONeDqhdk_10_15'
p3196
sS'vid324'
p3197
S'7d1d2WlEnKs_0_12'
p3198
sS'vid1590'
p3199
S'nS6oQxX_Qi8_2_12'
p3200
sS'vid325'
p3201
S'7s0AXJtLL0Y_57_61'
p3202
sS'vid1597'
p3203
S'nZSFn51l3hc_318_326'
p3204
sS'vid326'
p3205
S'7uF-2adCsI0_60_67'
p3206
sS'vid1596'
p3207
S'nYwbAb0QvBE_195_210'
p3208
sS'vid327'
p3209
S'7uOiiA4Kxbo_23_35'
p3210
sS'vid1595'
p3211
S'nV3Wv8iHp4U_0_38'
p3212
sS'vid320'
p3213
S'7OGizkf_JEo_191_194'
p3214
sS'vid1594'
p3215
S'nULE40HEWpA_5_11'
p3216
sS'vid321'
p3217
S'7ZE2OzguWHo_28_38'
p3218
sS'vid322'
p3219
S'7_XASfcYdBk_3_13'
p3220
sS'vid895'
p3221
S'RieF9wrFd8s_1_8'
p3222
sS'vid1788'
p3223
S'tYQ7O6V0Fvk_20_55'
p3224
sS'vid1789'
p3225
S'tYh4iDFgmEE_10_14'
p3226
sS'vid1782'
p3227
S't8Nf1MK7lts_0_10'
p3228
sS'vid1783'
p3229
S'tBj4Ny19vfQ_54_59'
p3230
sS'vid1780'
p3231
S't4aPGtx7e6k_0_10'
p3232
sS'vid1781'
p3233
S't4vP-cXXWkY_14_20'
p3234
sS'vid1786'
p3235
S'tJHUH9tpqPg_113_118'
p3236
sS'vid1787'
p3237
S'tPkZK-PzeQE_10_28'
p3238
sS'vid1784'
p3239
S'tHLiYTS9Iz8_1_16'
p3240
sS'vid1785'
p3241
S'tIMDKdMnNYM_266_273'
p3242
sS'vid1018'
p3243
S'WPG-BIWOrG4_672_677'
p3244
sS'vid1019'
p3245
S'WPG-BIWOrG4_683_689'
p3246
sS'vid1548'
p3247
S'm1NR0uNNs5Y_123_129'
p3248
sS'vid1549'
p3249
S'm1NR0uNNs5Y_160_166'
p3250
sS'vid1012'
p3251
S'WEJfT-oB4v4_20_35'
p3252
sS'vid1013'
p3253
S'WFNXwor69-U_33_40'
p3254
sS'vid1010'
p3255
S'W8l_ezoU8Lc_76_86'
p3256
sS'vid1011'
p3257
S'WAa4-cctmDk_55_70'
p3258
sS'vid1016'
p3259
S'WPG-BIWOrG4_608_613'
p3260
sS'vid1017'
p3261
S'WPG-BIWOrG4_635_640'
p3262
sS'vid1014'
p3263
S'WG0J2B19ZT8_1_33'
p3264
sS'vid1015'
p3265
S'WPG-BIWOrG4_130_134'
p3266
sS'vid1764'
p3267
S'sRKQfxxEP4M_117_125'
p3268
sS'vid1765'
p3269
S'sT5Bzt9w354_11_34'
p3270
sS'vid1766'
p3271
S'sTMlQSbAGfE_0_12'
p3272
sS'vid1767'
p3273
S'sWqi41wyXcQ_68_79'
p3274
sS'vid1760'
p3275
S'sFExO_PW22s_10_18'
p3276
sS'vid1761'
p3277
S'sJC7E06IBXI_49_59'
p3278
sS'vid1762'
p3279
S'sJSmRik2c-c_1_7'
p3280
sS'vid1763'
p3281
S'sMscRb9TcQE_146_161'
p3282
sS'vid1948'
p3283
S'zSPBC8EO6dY_64_73'
p3284
sS'vid1949'
p3285
S'zSPBC8EO6dY_97_110'
p3286
sS'vid1768'
p3287
S'sXyjCgR0rAc_0_11'
p3288
sS'vid1769'
p3289
S'sZf3VDsdDPM_107_114'
p3290
sS'vid247'
p3291
S'5W02895vT8c_312_322'
p3292
sS'vid246'
p3293
S'5U3xz9Ovmhk_9_15'
p3294
sS'vid717'
p3295
S'L9wD3kw-8FE_65_73'
p3296
sS'vid531'
p3297
S'Els1Cclg_sk_4_15'
p3298
sS'vid530'
p3299
S'EjAoBKagWQA_132_145'
p3300
sS'vid533'
p3301
S'EqOGzNkekMk_5_15'
p3302
sS'vid532'
p3303
S'EpMuCrbxE8A_107_115'
p3304
sS'vid535'
p3305
S'F1BwUJ4--Qw_21_38'
p3306
sS'vid534'
p3307
S'EwTZ2xpQwpA_14_21'
p3308
sS'vid537'
p3309
S'F3pmw2ga244_59_65'
p3310
sS'vid536'
p3311
S'F2Ny7rq9RKs_139_148'
p3312
sS'vid539'
p3313
S'FA3OfhJK0mI_195_203'
p3314
sS'vid538'
p3315
S'F44bLc6t7-I_1_8'
p3316
sS'vid710'
p3317
S'Kqb-mmkEWqU_1_5'
p3318
sS'vid1306'
p3319
S'fEsrO_poIUg_161_168'
p3320
sS'vid1307'
p3321
S'fF89MasBFLw_321_326'
p3322
sS'vid1304'
p3323
S'f9_bP219ehQ_63_70'
p3324
sS'vid1305'
p3325
S'fBA_lxUiwSg_2_4'
p3326
sS'vid1302'
p3327
S'f-24IxG9ijw_25_40'
p3328
sS'vid1303'
p3329
S'f9Won2JpOEU_60_80'
p3330
sS'vid1300'
p3331
S'eyMYc-37Sk4_0_10'
p3332
sS'vid1301'
p3333
S'eyhzdC936uk_15_27'
p3334
sS'vid240'
p3335
S'5P6UU6m3cqk_57_75'
p3336
sS'vid1308'
p3337
S'fGc6_D0JEIQ_31_46'
p3338
sS'vid1309'
p3339
S'fHfpMUDrQCs_17_31'
p3340
sS'vid1162'
p3341
S'aA05I5QaZnM_66_75'
p3342
sS'vid1163'
p3343
S'aC-KOYQsIvU_25_31'
p3344
sS'vid1160'
p3345
S'a28s_wyqkyc_68_77'
p3346
sS'vid1161'
p3347
S'a8PAY4rvzRM_1_10'
p3348
sS'vid629'
p3349
S'IhwPQL9dFYc_24_30'
p3350
sS'vid628'
p3351
S'IhwPQL9dFYc_171_175'
p3352
sS'vid199'
p3353
S'4PcL6-mjRNk_47_55'
p3354
sS'vid1165'
p3355
S'aDjNl5gs4nM_18_47'
p3356
sS'vid197'
p3357
S'4PayIIIOeIs_230_238'
p3358
sS'vid196'
p3359
S'4MjTb5A68VA_111_118'
p3360
sS'vid195'
p3361
S'4JVpbYmqfcI_5_19'
p3362
sS'vid1169'
p3363
S'aK8liAv-28s_72_82'
p3364
sS'vid621'
p3365
S'IY1Fn796MoY_7_10'
p3366
sS'vid620'
p3367
S'IWhrWLOAin0_1_4'
p3368
sS'vid623'
p3369
S'IhwPQL9dFYc_124_129'
p3370
sS'vid622'
p3371
S'I_-Nb_0RxpM_1_15'
p3372
sS'vid845'
p3373
S'Pgm-mOQu2MM_48_62'
p3374
sS'vid844'
p3375
S'PeUHy0A1GF0_99_103'
p3376
sS'vid847'
p3377
S'PmrTDZy3f2M_35_39'
p3378
sS'vid846'
p3379
S'PiyoeFC31kE_9_27'
p3380
sS'vid841'
p3381
S'PeUHy0A1GF0_68_73'
p3382
sS'vid840'
p3383
S'PeUHy0A1GF0_62_66'
p3384
sS'vid843'
p3385
S'PeUHy0A1GF0_78_85'
p3386
sS'vid842'
p3387
S'PeUHy0A1GF0_74_77'
p3388
sS'vid849'
p3389
S'PqvKNqkGI9o_47_52'
p3390
sS'vid848'
p3391
S'PqSZ89FqpiY_65_75'
p3392
sS'vid997'
p3393
S'Vg1jyL3cr60_163_186'
p3394
sS'vid996'
p3395
S'VfqlfprZsaQ_75_85'
p3396
sS'vid995'
p3397
S'VahnQw2gTQY_322_327'
p3398
sS'vid994'
p3399
S'VahnQw2gTQY_315_320'
p3400
sS'vid993'
p3401
S'VahnQw2gTQY_298_305'
p3402
sS'vid992'
p3403
S'VahnQw2gTQY_288_293'
p3404
sS'vid991'
p3405
S'VahnQw2gTQY_274_280'
p3406
sS'vid990'
p3407
S'VahnQw2gTQY_203_210'
p3408
sS'vid999'
p3409
S'ViWQUOGIaSU_9_16'
p3410
sS'vid998'
p3411
S'ViM0JjUoqRw_10_20'
p3412
sS'vid449'
p3413
S'BVjvRpmHg0w_231_250'
p3414
sS'vid448'
p3415
S'BVjvRpmHg0w_157_165'
p3416
sS'vid441'
p3417
S'BIqVvRh_cEY_143_149'
p3418
sS'vid440'
p3419
S'BGG0uYWZBdw_6_12'
p3420
sS'vid443'
p3421
S'BOLKaQeB6j0_101_111'
p3422
sS'vid442'
p3423
S'BLXzfdNmydQ_151_156'
p3424
sS'vid445'
p3425
S'BR4yQFZK9YM_101_110'
p3426
sS'vid444'
p3427
S'BOv-2HzNPaA_7_12'
p3428
sS'vid447'
p3429
S'BVjvRpmHg0w_121_130'
p3430
sS'vid446'
p3431
S'BVilbVCo9sU_1_11'
p3432
sS'vid1746'
p3433
S's-XjRDsYuzU_0_12'
p3434
sS'vid1747'
p3435
S's-dSFyz_5Ww_13_23'
p3436
sS'vid1744'
p3437
S'ry7AUQtuwdU_4_39'
p3438
sS'vid1745'
p3439
S's-QQWRdF-5Y_19_28'
p3440
sS'vid1742'
p3441
S'rwHT2SuNOi8_195_201'
p3442
sS'vid1743'
p3443
S'rwHT2SuNOi8_240_255'
p3444
sS'vid1706'
p3445
S'qeKX-N1nKiM_74_77'
p3446
sS'vid1740'
p3447
S'rw9h_574HxE_59_66'
p3448
sS'vid1741'
p3449
S'rw9h_574HxE_70_74'
p3450
sS'vid1733'
p3451
S'ruNrdmjcNTc_0_5'
p3452
sS'vid1732'
p3453
S'rq2p5ML8-WI_63_69'
p3454
sS'vid1731'
p3455
S'rnawC5C8gSI_82_90'
p3456
sS'vid1692'
p3457
S'qIXs7fUoLIg_1_11'
p3458
sS'vid1693'
p3459
S'qIk_Dz5XE5E_104_109'
p3460
sS'vid1707'
p3461
S'qew09qQgMAg_22_27'
p3462
sS'vid1698'
p3463
S'qRoxNXm7INc_58_66'
p3464
sS'vid1699'
p3465
S'qeKX-N1nKiM_0_5'
p3466
sS'vid1735'
p3467
S'rw9h_574HxE_127_133'
p3468
sS'vid1734'
p3469
S'ruoHOXo2PRQ_2_20'
p3470
sS'vid1579'
p3471
S'n2NLoLNecgI_168_178'
p3472
sS'vid1578'
p3473
S'n016q1w8Q30_2_11'
p3474
sS'vid1571'
p3475
S'mmSQTI6gMNQ_120_128'
p3476
sS'vid1570'
p3477
S'mfJjIOfj6D8_3_10'
p3478
sS'vid1573'
p3479
S'msCidKHOh74_392_399'
p3480
sS'vid1572'
p3481
S'mmSQTI6gMNQ_15_21'
p3482
sS'vid1575'
p3483
S'mtrCf667KDk_134_176'
p3484
sS'vid1574'
p3485
S'msCidKHOh74_410_418'
p3486
sS'vid1577'
p3487
S'mv89psg6zh4_33_46'
p3488
sS'vid1576'
p3489
S'muI1BFsdbdo_33_45'
p3490
sS'vid1751'
p3491
S's20OlIRK340_125_138'
p3492
sS'vid1750'
p3493
S's1ZABV7AQdA_38_48'
p3494
sS'vid1753'
p3495
S's6QwbmWbSmw_18_24'
p3496
sS'vid1752'
p3497
S's20OlIRK340_147_174'
p3498
sS'vid1755'
p3499
S's80J2dAUUyI_33_43'
p3500
sS'vid1754'
p3501
S's7znbqra118_91_97'
p3502
sS'vid1209'
p3503
S'bmvD4HlPFxg_20_27'
p3504
sS'vid1208'
p3505
S'bmOy6p87TWI_26_35'
p3506
sS'vid1207'
p3507
S'bkazguPsusc_74_85'
p3508
sS'vid1206'
p3509
S'bb6V0Grtub4_174_185'
p3510
sS'vid1205'
p3511
S'b_BuSVZwq6M_1_9'
p3512
sS'vid1204'
p3513
S'bXsKw3TOQXs_30_55'
p3514
sS'vid1203'
p3515
S'bSrpvMSuhPM_17_31'
p3516
sS'vid1202'
p3517
S'bSIjZ75a50s_286_304'
p3518
sS'vid1201'
p3519
S'bQJQGoJF7_k_162_169'
p3520
sS'vid1200'
p3521
S'bQJQGoJF7_k_145_153'
p3522
sS'vid298'
p3523
S'6t0BpjwYKco_240_247'
p3524
sS'vid299'
p3525
S'6t0BpjwYKco_254_258'
p3526
sS'vid294'
p3527
S'6t0BpjwYKco_179_183'
p3528
sS'vid295'
p3529
S'6t0BpjwYKco_200_205'
p3530
sS'vid296'
p3531
S'6t0BpjwYKco_217_229'
p3532
sS'vid297'
p3533
S'6t0BpjwYKco_230_240'
p3534
sS'vid290'
p3535
S'6t0BpjwYKco_105_110'
p3536
sS'vid291'
p3537
S'6t0BpjwYKco_118_127'
p3538
sS'vid292'
p3539
S'6t0BpjwYKco_142_151'
p3540
sS'vid293'
p3541
S'6t0BpjwYKco_15_31'
p3542
sS'vid1683'
p3543
S'q5ZRMvjzhXQ_15_29'
p3544
sS'vid1682'
p3545
S'q3I3R_gqy8M_73_79'
p3546
sS'vid1681'
p3547
S'q3I3R_gqy8M_38_42'
p3548
sS'vid1680'
p3549
S'q3I3R_gqy8M_34_37'
p3550
sS'vid508'
p3551
S'De815YpTBic_41_48'
p3552
sS'vid509'
p3553
S'Dgf0VHMEtNs_57_66'
p3554
sS'vid1685'
p3555
S'q7pOFn8s4zc_263_273'
p3556
sS'vid1684'
p3557
S'q6vz80UkVtw_0_7'
p3558
sS'vid504'
p3559
S'DKgHYLDebx0_0_8'
p3560
sS'vid505'
p3561
S'DLcuZ-HnHZc_0_10'
p3562
sS'vid506'
p3563
S'DN7jwyL1Xgg_1_19'
p3564
sS'vid507'
p3565
S'DcDYRpa34W8_11_25'
p3566
sS'vid500'
p3567
S'DIebwNHGjm8_133_148'
p3568
sS'vid501'
p3569
S'DIebwNHGjm8_27_38'
p3570
sS'vid502'
p3571
S'DJWmm_Q9WvY_1_25'
p3572
sS'vid503'
p3573
S'DKZg4kIEa0A_31_36'
p3574
sS'vid1373'
p3575
S'hFERWnoc-nU_0_12'
p3576
sS'vid1372'
p3577
S'hEOGZoYSvT4_82_86'
p3578
sS'vid1371'
p3579
S'h0JvF9vpqx8_36_42'
p3580
sS'vid1370'
p3581
S'h0JvF9vpqx8_213_223'
p3582
sS'vid1377'
p3583
S'hJFBXHtxKIc_225_230'
p3584
sS'vid1376'
p3585
S'hJFBXHtxKIc_204_209'
p3586
sS'vid1375'
p3587
S'hJFBXHtxKIc_163_168'
p3588
sS'vid1374'
p3589
S'hJFBXHtxKIc_118_123'
p3590
sS'vid1379'
p3591
S'hJFBXHtxKIc_298_303'
p3592
sS'vid1378'
p3593
S'hJFBXHtxKIc_286_291'
p3594
sS'vid618'
p3595
S'INDhUwDMg-4_220_227'
p3596
sS'vid619'
p3597
S'ITNh8tWZPOA_5_25'
p3598
sS'vid1199'
p3599
S'bQJQGoJF7_k_120_126'
p3600
sS'vid1198'
p3601
S'bQJQGoJF7_k_109_115'
p3602
sS'vid1197'
p3603
S'bLqmf8x7rLI_2_8'
p3604
sS'vid611'
p3605
S'HzYtvOYOEoU_21_32'
p3606
sS'vid612'
p3607
S'I9gLTZY1ouc_142_147'
p3608
sS'vid613'
p3609
S'IAvBB2lv8iw_142_148'
p3610
sS'vid1193'
p3611
S'bDoCQEwghZU_201_211'
p3612
sS'vid615'
p3613
S'ID2xXlUENG0_19_24'
p3614
sS'vid1191'
p3615
S'b97TK8XVLHE_40_50'
p3616
sS'vid617'
p3617
S'IHIa75B9AhI_2_26'
p3618
sS'vid870'
p3619
S'Qjbcibrv3L0_26_32'
p3620
sS'vid871'
p3621
S'QklHhN8pQBE_0_10'
p3622
sS'vid872'
p3623
S'Qp-k0H93iJE_35_39'
p3624
sS'vid873'
p3625
S'QqYWLR47eLI_10_18'
p3626
sS'vid874'
p3627
S'QsC8__3lwO0_50_60'
p3628
sS'vid875'
p3629
S'QsvBYKaCXEc_5_15'
p3630
sS'vid876'
p3631
S'Qtu-PXuvCx4_12_17'
p3632
sS'vid877'
p3633
S'Qwn0Ni9G5ow_64_69'
p3634
sS'vid878'
p3635
S'QzcTlEpAigQ_0_14'
p3636
sS'vid879'
p3637
S'QzulzuWr0Zw_20_45'
p3638
sS'vid474'
p3639
S'CcvJs77L-e8_15_22'
p3640
sS'vid475'
p3641
S'Ce7equ9zCxk_4_19'
p3642
sS'vid476'
p3643
S'CgWYN5e9K10_30_62'
p3644
sS'vid477'
p3645
S'Cjf21Y19aUQ_82_86'
p3646
sS'vid470'
p3647
S'CL49s8bO6Fg_1_11'
p3648
sS'vid471'
p3649
S'CTIKmoEigCI_3_30'
p3650
sS'vid472'
p3651
S'C_1cnNdMwxY_0_8'
p3652
sS'vid473'
p3653
S'C_DDjCRxTxQ_1_4'
p3654
sS'vid478'
p3655
S'CjvMNwpAFWM_56_66'
p3656
sS'vid479'
p3657
S'CquJjlNuotg_147_155'
p3658
sS'vid276'
p3659
S'6gQu8PWhFoQ_37_41'
p3660
sS'vid277'
p3661
S'6mYnZbIwcNo_10_16'
p3662
sS'vid274'
p3663
S'6eokrw6_bjU_1_9'
p3664
sS'vid275'
p3665
S'6gQu8PWhFoQ_30_35'
p3666
sS'vid272'
p3667
S'6ZhKOK08tgM_225_233'
p3668
sS'vid273'
p3669
S'6ZhKOK08tgM_45_49'
p3670
sS'vid270'
p3671
S'6RlYLTU5gvM_18_24'
p3672
sS'vid271'
p3673
S'6ZZkO14S7GY_5_15'
p3674
sS'vid1910'
p3675
S'yBK02O1Oewc_20_35'
p3676
sS'vid278'
p3677
S'6njscWrdnM0_8_18'
p3678
sS'vid279'
p3679
S'6owu8Mow0_g_275_280'
p3680
sS'vid767'
p3681
S'N5wsl86P37Q_1_15'
p3682
sS'vid1624'
p3683
S'o4pL7FObqds_72_78'
p3684
sS'vid1623'
p3685
S'o4pL7FObqds_243_263'
p3686
sS'vid1622'
p3687
S'o4pL7FObqds_137_147'
p3688
sS'vid1629'
p3689
S'oG6LLGi_n48_51_55'
p3690
sS'vid1628'
p3691
S'oFUsn1owAbs_158_168'
p3692
sS'vid9'
p3693
S'-DKuLXYoY3g_14_20'
p3694
sS'vid8'
p3695
S'-Cv5LsqKUXc_71_76'
p3696
sS'vid3'
p3697
S'-8y1Q0rA3n8_108_115'
p3698
sS'vid2'
p3699
S'-7KMZQEsJW4_205_208'
p3700
sS'vid1'
p3701
S'-4wsuPCjDBc_5_15'
p3702
sS'vid7'
p3703
S'-Cv5LsqKUXc_17_25'
p3704
sS'vid6'
p3705
S'-AwoiGR6c8M_10_14'
p3706
sS'vid5'
p3707
S'-9CUm-2cui8_39_44'
p3708
sS'vid4'
p3709
S'-8y1Q0rA3n8_95_102'
p3710
sS'vid785'
p3711
S'NoCgvH4xZHo_240_251'
p3712
sS'vid789'
p3713
S'O2qiPS2NCeY_2_18'
p3714
sS'vid1566'
p3715
S'mYzajpeAWuA_100_112'
p3716
sS'vid1567'
p3717
S'mZVPkPqwzR4_38_45'
p3718
sS'vid1564'
p3719
S'mJ9eRvxjLc4_0_16'
p3720
sS'vid1565'
p3721
S'mOZkcBcWR8o_6_12'
p3722
sS'vid1562'
p3723
S'mFCf8lLXrUc_36_57'
p3724
sS'vid1563'
p3725
S'mHv4iJ9Yr1g_10_16'
p3726
sS'vid1560'
p3727
S'mF6ijhSrbBQ_32_40'
p3728
sS'vid1561'
p3729
S'mFCf8lLXrUc_25_35'
p3730
sS'vid1568'
p3731
S'mbesJaS6vwg_187_195'
p3732
sS'vid1569'
p3733
S'me1D1WZ0yNM_120_124'
p3734
sS'vid1968'
p3735
S'zv2RIbUsnSw_335_341'
p3736
sS'vid1969'
p3737
S'zxB4dFJhHR8_1_9'
p3738
sS'vid1218'
p3739
S'bxjFqtfJlMs_18_27'
p3740
sS'vid1219'
p3741
S'c2MwqFYVE7A_40_45'
p3742
sS'vid1748'
p3743
S's-dSFyz_5Ww_31_41'
p3744
sS'vid1749'
p3745
S's0hwEUC5emA_127_132'
p3746
sS'vid1214'
p3747
S'btuxO-C2IzE_64_72'
p3748
sS'vid1215'
p3749
S'btxCxlO1Euc_1_20'
p3750
sS'vid1216'
p3751
S'buJ5HDCinrM_150_166'
p3752
sS'vid1217'
p3753
S'bxDlC7YV5is_0_12'
p3754
sS'vid1210'
p3755
S'bmxIurBrW5s_51_70'
p3756
sS'vid1211'
p3757
S'bnN_o0Hkn3M_73_80'
p3758
sS'vid1212'
p3759
S'bqMmyY1ImkI_0_14'
p3760
sS'vid1213'
p3761
S'bruzcOyIGeg_4_12'
p3762
sS'vid289'
p3763
S'6sYmDT5et00_301_339'
p3764
sS'vid288'
p3765
S'6sKdTbRkahM_6_12'
p3766
sS'vid283'
p3767
S'6owu8Mow0_g_692_697'
p3768
sS'vid282'
p3769
S'6owu8Mow0_g_527_534'
p3770
sS'vid281'
p3771
S'6owu8Mow0_g_384_389'
p3772
sS'vid280'
p3773
S'6owu8Mow0_g_302_307'
p3774
sS'vid287'
p3775
S'6r5DmFa5ZR8_51_58'
p3776
sS'vid286'
p3777
S'6q1dX6thX3E_286_295'
p3778
sS'vid285'
p3779
S'6pcqRuFEMLs_46_52'
p3780
sS'vid284'
p3781
S'6owu8Mow0_g_850_855'
p3782
sS'vid1690'
p3783
S'qBFSt85-xqk_15_20'
p3784
sS'vid1691'
p3785
S'qDjtN7xxNr4_44_51'
p3786
sS'vid519'
p3787
S'EBWPZIjtnTM_1_6'
p3788
sS'vid518'
p3789
S'EA-J-Y6QjUo_40_61'
p3790
sS'vid1694'
p3791
S'qLwgb3F0aPU_298_305'
p3792
sS'vid1695'
p3793
S'qNjeEx92rTA_281_299'
p3794
sS'vid1696'
p3795
S'qOiN__I1-Zo_2_8'
p3796
sS'vid1697'
p3797
S'qPXynwa_2iM_15_25'
p3798
sS'vid513'
p3799
S'DvYN53KBDr0_51_62'
p3800
sS'vid512'
p3801
S'DuMkW35BwK8_43_47'
p3802
sS'vid511'
p3803
S'DlOhXqKcLXk_7_14'
p3804
sS'vid510'
p3805
S'DhwrBs96Kgk_120_124'
p3806
sS'vid517'
p3807
S'E6sqA9QtV5I_195_201'
p3808
sS'vid516'
p3809
S'E61HNXjgyqA_22_32'
p3810
sS'vid515'
p3811
S'E4k0Aylzdyo_97_104'
p3812
sS'vid514'
p3813
S'E2r6nnkwl0c_6_18'
p3814
sS'vid1360'
p3815
S'glii-kazad8_21_29'
p3816
sS'vid1361'
p3817
S'glrijRGnmc0_211_215'
p3818
sS'vid1362'
p3819
S'gnEE6oWoz7U_124_132'
p3820
sS'vid1363'
p3821
S'gp8XjWSoP2k_0_10'
p3822
sS'vid1364'
p3823
S'gqSOvUH_njE_151_155'
p3824
sS'vid1365'
p3825
S'gqxpGOHUH9k_113_119'
p3826
sS'vid1366'
p3827
S'gtIz1u8g1F0_3_13'
p3828
sS'vid1367'
p3829
S'gtixLEvO2Us_0_6'
p3830
sS'vid1368'
p3831
S'gvVsgOK1iJw_32_38'
p3832
sS'vid1369'
p3833
S'gyOVZz7kXyM_1_10'
p3834
sS'vid607'
p3835
S'HqbVbPvlDoM_0_11'
p3836
sS'vid606'
p3837
S'HmVPxs4ygMc_44_53'
p3838
sS'vid605'
p3839
S'HkuOqWzXYVg_0_12'
p3840
sS'vid604'
p3841
S'HkpUWzNNVt4_20_30'
p3842
sS'vid603'
p3843
S'He7Ge7Sogrk_47_70'
p3844
sS'vid602'
p3845
S'Hd-NeIhbYGc_43_48'
p3846
sS'vid601'
p3847
S'Hd-NeIhbYGc_28_31'
p3848
sS'vid600'
p3849
S'HZqscSWtHmo_24_34'
p3850
sS'vid1168'
p3851
S'aJoDt4DMkFU_118_124'
p3852
sS'vid609'
p3853
S'HxRK-WqZ5Gk_30_50'
p3854
sS'vid608'
p3855
S'Hu9Sq1RvuoA_19_62'
p3856
sS'vid1188'
p3857
S'b4FM9OLBGyM_37_49'
p3858
sS'vid1189'
p3859
S'b4mJ3AQc-ag_30_34'
p3860
sS'vid1184'
p3861
S'ao-9B8IV9_E_87_95'
p3862
sS'vid1185'
p3863
S'auFXfsCzAvQ_1_15'
p3864
sS'vid1186'
p3865
S'b-d-CxHaKGU_10_30'
p3866
sS'vid1187'
p3867
S'b24_bb57PPk_631_637'
p3868
sS'vid1180'
p3869
S'ao-9B8IV9_E_217_221'
p3870
sS'vid1181'
p3871
S'ao-9B8IV9_E_37_44'
p3872
sS'vid1182'
p3873
S'ao-9B8IV9_E_72_77'
p3874
sS'vid1183'
p3875
S'ao-9B8IV9_E_77_81'
p3876
sS'vid1497'
p3877
S'kWLNZzuo3do_56_62'
p3878
sS'vid869'
p3879
S'QjI3Y8ZKSqs_30_38'
p3880
sS'vid868'
p3881
S'QhRqJp-CgEs_7_14'
p3882
sS'vid867'
p3883
S'QVSt5USMkMg_43_50'
p3884
sS'vid866'
p3885
S'QTAqjSbMkXU_65_75'
p3886
sS'vid865'
p3887
S'QT8iCDc7NGU_18_23'
p3888
sS'vid864'
p3889
S'QOmrchUPnBs_10_20'
p3890
sS'vid863'
p3891
S'QMJY29QMewQ_42_52'
p3892
sS'vid862'
p3893
S'QHkvBU8diwU_1_18'
p3894
sS'vid861'
p3895
S'QGgJlHi3tjw_1_15'
p3896
sS'vid860'
p3897
S'QGJy1K91gP4_90_100'
p3898
sS'vid463'
p3899
S'C2rDp6FnbP0_10_17'
p3900
sS'vid462'
p3901
S'C1MNCR1o9lU_0_7'
p3902
sS'vid461'
p3903
S'C12BRGGcd5E_101_117'
p3904
sS'vid460'
p3905
S'ByGspTdA1ug_16_24'
p3906
sS'vid467'
p3907
S'CGllPWAwmUo_1_15'
p3908
sS'vid466'
p3909
S'CBD9h0jUq3w_1_7'
p3910
sS'vid465'
p3911
S'C9vRgZDxTv4_26_33'
p3912
sS'vid464'
p3913
S'C9LHk0AJI7U_196_205'
p3914
sS'vid469'
p3915
S'CHVhwcOg6y8_1_12'
p3916
sS'vid468'
p3917
S'CHFXTeQWXjo_206_212'
p3918
sS'vid265'
p3919
S'6JnGBs88sL0_4_10'
p3920
sS'vid264'
p3921
S'6GJ1DNOGDAM_223_233'
p3922
sS'vid267'
p3923
S'6Lzq1HN33lE_5_15'
p3924
sS'vid266'
p3925
S'6KS8R3RxrV8_0_23'
p3926
sS'vid261'
p3927
S'64Xn9edeWRA_0_11'
p3928
sS'vid260'
p3929
S'62I8I4sCPPQ_12_30'
p3930
sS'vid263'
p3931
S'6FmN22YcVVE_11_18'
p3932
sS'vid262'
p3933
S'6BrHPMdyVtU_1_10'
p3934
sS'vid643'
p3935
S'ItFqogTmAvQ_361_365'
p3936
sS'vid269'
p3937
S'6QbhfbLUtQs_13_23'
p3938
sS'vid268'
p3939
S'6Q3ltyPJJMQ_67_72'
p3940
s.